Component: ARM Compiler 5.06 update 7 (build 960) Tool: armlink [4d3601]

==============================================================================

Section Cross References

    startup_stm32f103xe.o(RESET) refers to startup_stm32f103xe.o(STACK) for __initial_sp
    startup_stm32f103xe.o(RESET) refers to startup_stm32f103xe.o(.text) for Reset_Handler
    startup_stm32f103xe.o(RESET) refers to stm32f1xx_it.o(i.NMI_Handler) for NMI_Handler
    startup_stm32f103xe.o(RESET) refers to stm32f1xx_it.o(i.HardFault_Handler) for HardFault_Handler
    startup_stm32f103xe.o(RESET) refers to stm32f1xx_it.o(i.MemManage_Handler) for MemManage_Handler
    startup_stm32f103xe.o(RESET) refers to stm32f1xx_it.o(i.BusFault_Handler) for BusFault_Handler
    startup_stm32f103xe.o(RESET) refers to stm32f1xx_it.o(i.UsageFault_Handler) for UsageFault_Handler
    startup_stm32f103xe.o(RESET) refers to stm32f1xx_it.o(i.DebugMon_Handler) for DebugMon_Handler
    startup_stm32f103xe.o(RESET) refers to stm32f1xx_it.o(i.SysTick_Handler) for SysTick_Handler
    startup_stm32f103xe.o(RESET) refers to stm32f1xx_it.o(i.DMA1_Channel3_IRQHandler) for DMA1_Channel3_IRQHandler
    startup_stm32f103xe.o(RESET) refers to stm32f1xx_it.o(i.DMA1_Channel6_IRQHandler) for DMA1_Channel6_IRQHandler
    startup_stm32f103xe.o(RESET) refers to openmv.o(i.USART2_IRQHandler) for USART2_IRQHandler
    startup_stm32f103xe.o(RESET) refers to bsp_imu.o(i.USART3_IRQHandler) for USART3_IRQHandler
    startup_stm32f103xe.o(RESET) refers to bsp_linefollower.o(i.UART4_IRQHandler) for UART4_IRQHandler
    startup_stm32f103xe.o(RESET) refers to bsp_qrscan.o(i.UART5_IRQHandler) for UART5_IRQHandler
    startup_stm32f103xe.o(RESET) refers to stm32f1xx_it.o(i.TIM6_IRQHandler) for TIM6_IRQHandler
    startup_stm32f103xe.o(.text) refers to system_stm32f1xx.o(i.SystemInit) for SystemInit
    startup_stm32f103xe.o(.text) refers to entry.o(.ARM.Collect$$$$00000000) for __main
    main.o(i.Error_Handler) refers to bsp_buzzer.o(i.buzzer_on) for buzzer_on
    main.o(i.Error_Handler) refers to bsp_delay.o(i.delay_ms) for delay_ms
    main.o(i.Error_Handler) refers to bsp_buzzer.o(i.buzzer_off) for buzzer_off
    main.o(i.SystemClock_Config) refers to memseta.o(.text) for __aeabi_memclr4
    main.o(i.SystemClock_Config) refers to stm32f1xx_hal_rcc.o(i.HAL_RCC_OscConfig) for HAL_RCC_OscConfig
    main.o(i.SystemClock_Config) refers to main.o(i.Error_Handler) for Error_Handler
    main.o(i.SystemClock_Config) refers to stm32f1xx_hal_rcc.o(i.HAL_RCC_ClockConfig) for HAL_RCC_ClockConfig
    main.o(i.main) refers to stm32f1xx_hal.o(i.HAL_Init) for HAL_Init
    main.o(i.main) refers to main.o(i.SystemClock_Config) for SystemClock_Config
    main.o(i.main) refers to gpio.o(i.MX_GPIO_Init) for MX_GPIO_Init
    main.o(i.main) refers to dma.o(i.MX_DMA_Init) for MX_DMA_Init
    main.o(i.main) refers to usart.o(i.MX_USART2_UART_Init) for MX_USART2_UART_Init
    main.o(i.main) refers to usart.o(i.MX_USART3_UART_Init) for MX_USART3_UART_Init
    main.o(i.main) refers to usart.o(i.MX_UART4_Init) for MX_UART4_Init
    main.o(i.main) refers to usart.o(i.MX_UART5_Init) for MX_UART5_Init
    main.o(i.main) refers to tim.o(i.MX_TIM1_Init) for MX_TIM1_Init
    main.o(i.main) refers to tim.o(i.MX_TIM2_Init) for MX_TIM2_Init
    main.o(i.main) refers to tim.o(i.MX_TIM3_Init) for MX_TIM3_Init
    main.o(i.main) refers to tim.o(i.MX_TIM4_Init) for MX_TIM4_Init
    main.o(i.main) refers to tim.o(i.MX_TIM5_Init) for MX_TIM5_Init
    main.o(i.main) refers to tim.o(i.MX_TIM6_Init) for MX_TIM6_Init
    main.o(i.main) refers to tim.o(i.MX_TIM8_Init) for MX_TIM8_Init
    main.o(i.main) refers to bsp_delay.o(i.delay_init) for delay_init
    main.o(i.main) refers to bsp_servo_iic.o(i.pca_init) for pca_init
    main.o(i.main) refers to bsp_motor.o(i.motor_pwm_enable) for motor_pwm_enable
    main.o(i.main) refers to bsp_linefollower.o(i.LFB_receive_init) for LFB_receive_init
    main.o(i.main) refers to pid.o(i.pid_init) for pid_init
    main.o(i.main) refers to bsp_imu.o(i.imu_receive_init) for imu_receive_init
    main.o(i.main) refers to openmv.o(i.openmv_receive_init) for openmv_receive_init
    main.o(i.main) refers to bsp_qrscan.o(i.QR_receive_init) for QR_receive_init
    main.o(i.main) refers to map.o(i.mapInit) for mapInit
    main.o(i.main) refers to bsp_delay.o(i.delay_ms) for delay_ms
    main.o(i.main) refers to fadd.o(.text) for __aeabi_fadd
    main.o(i.main) refers to fdiv.o(.text) for __aeabi_fdiv
    main.o(i.main) refers to turn.o(i.mpuZreset) for mpuZreset
    main.o(i.main) refers to stm32f1xx_hal_tim.o(i.HAL_TIM_Base_Start_IT) for HAL_TIM_Base_Start_IT
    main.o(i.main) refers to bsp_led.o(i.LED_on) for LED_on
    main.o(i.main) refers to bsp_led.o(i.Shine_o_f) for Shine_o_f
    main.o(i.main) refers to motion.o(i.actions) for actions
    main.o(i.main) refers to stm32f1xx_hal.o(i.HAL_Delay) for HAL_Delay
    main.o(i.main) refers to bsp_buzzer.o(i.buzzer_on) for buzzer_on
    main.o(i.main) refers to bsp_buzzer.o(i.buzzer_off) for buzzer_off
    main.o(i.main) refers to tim_it.o(i.pid_mode_switch) for pid_mode_switch
    main.o(i.main) refers to map.o(i.Cross) for Cross
    main.o(i.main) refers to bsp_imu.o(.bss) for imu
    main.o(i.main) refers to map.o(.bss) for nodesr
    main.o(i.main) refers to tim.o(.bss) for htim6
    main.o(i.main) refers to speed_ctrl.o(.data) for motor_all
    gpio.o(i.MX_GPIO_Init) refers to stm32f1xx_hal_gpio.o(i.HAL_GPIO_WritePin) for HAL_GPIO_WritePin
    gpio.o(i.MX_GPIO_Init) refers to stm32f1xx_hal_gpio.o(i.HAL_GPIO_Init) for HAL_GPIO_Init
    dma.o(i.MX_DMA_Init) refers to stm32f1xx_hal_cortex.o(i.HAL_NVIC_SetPriority) for HAL_NVIC_SetPriority
    dma.o(i.MX_DMA_Init) refers to stm32f1xx_hal_cortex.o(i.HAL_NVIC_EnableIRQ) for HAL_NVIC_EnableIRQ
    tim.o(i.HAL_TIM_Base_MspDeInit) refers to stm32f1xx_hal_cortex.o(i.HAL_NVIC_DisableIRQ) for HAL_NVIC_DisableIRQ
    tim.o(i.HAL_TIM_Base_MspInit) refers to stm32f1xx_hal_cortex.o(i.HAL_NVIC_SetPriority) for HAL_NVIC_SetPriority
    tim.o(i.HAL_TIM_Base_MspInit) refers to stm32f1xx_hal_cortex.o(i.HAL_NVIC_EnableIRQ) for HAL_NVIC_EnableIRQ
    tim.o(i.HAL_TIM_Encoder_MspDeInit) refers to stm32f1xx_hal_gpio.o(i.HAL_GPIO_DeInit) for HAL_GPIO_DeInit
    tim.o(i.HAL_TIM_Encoder_MspInit) refers to stm32f1xx_hal_gpio.o(i.HAL_GPIO_Init) for HAL_GPIO_Init
    tim.o(i.HAL_TIM_MspPostInit) refers to stm32f1xx_hal_gpio.o(i.HAL_GPIO_Init) for HAL_GPIO_Init
    tim.o(i.MX_TIM1_Init) refers to memseta.o(.text) for __aeabi_memclr4
    tim.o(i.MX_TIM1_Init) refers to stm32f1xx_hal_tim.o(i.HAL_TIM_Base_Init) for HAL_TIM_Base_Init
    tim.o(i.MX_TIM1_Init) refers to main.o(i.Error_Handler) for Error_Handler
    tim.o(i.MX_TIM1_Init) refers to stm32f1xx_hal_tim.o(i.HAL_TIM_ConfigClockSource) for HAL_TIM_ConfigClockSource
    tim.o(i.MX_TIM1_Init) refers to stm32f1xx_hal_tim.o(i.HAL_TIM_PWM_Init) for HAL_TIM_PWM_Init
    tim.o(i.MX_TIM1_Init) refers to stm32f1xx_hal_tim_ex.o(i.HAL_TIMEx_MasterConfigSynchronization) for HAL_TIMEx_MasterConfigSynchronization
    tim.o(i.MX_TIM1_Init) refers to stm32f1xx_hal_tim.o(i.HAL_TIM_PWM_ConfigChannel) for HAL_TIM_PWM_ConfigChannel
    tim.o(i.MX_TIM1_Init) refers to stm32f1xx_hal_tim_ex.o(i.HAL_TIMEx_ConfigBreakDeadTime) for HAL_TIMEx_ConfigBreakDeadTime
    tim.o(i.MX_TIM1_Init) refers to tim.o(i.HAL_TIM_MspPostInit) for HAL_TIM_MspPostInit
    tim.o(i.MX_TIM1_Init) refers to tim.o(.bss) for .bss
    tim.o(i.MX_TIM2_Init) refers to memseta.o(.text) for __aeabi_memclr4
    tim.o(i.MX_TIM2_Init) refers to stm32f1xx_hal_tim.o(i.HAL_TIM_Encoder_Init) for HAL_TIM_Encoder_Init
    tim.o(i.MX_TIM2_Init) refers to main.o(i.Error_Handler) for Error_Handler
    tim.o(i.MX_TIM2_Init) refers to stm32f1xx_hal_tim_ex.o(i.HAL_TIMEx_MasterConfigSynchronization) for HAL_TIMEx_MasterConfigSynchronization
    tim.o(i.MX_TIM2_Init) refers to tim.o(.bss) for .bss
    tim.o(i.MX_TIM3_Init) refers to memseta.o(.text) for __aeabi_memclr4
    tim.o(i.MX_TIM3_Init) refers to stm32f1xx_hal_tim.o(i.HAL_TIM_Encoder_Init) for HAL_TIM_Encoder_Init
    tim.o(i.MX_TIM3_Init) refers to main.o(i.Error_Handler) for Error_Handler
    tim.o(i.MX_TIM3_Init) refers to stm32f1xx_hal_tim_ex.o(i.HAL_TIMEx_MasterConfigSynchronization) for HAL_TIMEx_MasterConfigSynchronization
    tim.o(i.MX_TIM3_Init) refers to tim.o(.bss) for .bss
    tim.o(i.MX_TIM4_Init) refers to memseta.o(.text) for __aeabi_memclr4
    tim.o(i.MX_TIM4_Init) refers to stm32f1xx_hal_tim.o(i.HAL_TIM_Encoder_Init) for HAL_TIM_Encoder_Init
    tim.o(i.MX_TIM4_Init) refers to main.o(i.Error_Handler) for Error_Handler
    tim.o(i.MX_TIM4_Init) refers to stm32f1xx_hal_tim_ex.o(i.HAL_TIMEx_MasterConfigSynchronization) for HAL_TIMEx_MasterConfigSynchronization
    tim.o(i.MX_TIM4_Init) refers to tim.o(.bss) for .bss
    tim.o(i.MX_TIM5_Init) refers to memseta.o(.text) for __aeabi_memclr4
    tim.o(i.MX_TIM5_Init) refers to stm32f1xx_hal_tim.o(i.HAL_TIM_Encoder_Init) for HAL_TIM_Encoder_Init
    tim.o(i.MX_TIM5_Init) refers to main.o(i.Error_Handler) for Error_Handler
    tim.o(i.MX_TIM5_Init) refers to stm32f1xx_hal_tim_ex.o(i.HAL_TIMEx_MasterConfigSynchronization) for HAL_TIMEx_MasterConfigSynchronization
    tim.o(i.MX_TIM5_Init) refers to tim.o(.bss) for .bss
    tim.o(i.MX_TIM6_Init) refers to stm32f1xx_hal_tim.o(i.HAL_TIM_Base_Init) for HAL_TIM_Base_Init
    tim.o(i.MX_TIM6_Init) refers to main.o(i.Error_Handler) for Error_Handler
    tim.o(i.MX_TIM6_Init) refers to stm32f1xx_hal_tim_ex.o(i.HAL_TIMEx_MasterConfigSynchronization) for HAL_TIMEx_MasterConfigSynchronization
    tim.o(i.MX_TIM6_Init) refers to tim.o(.bss) for .bss
    tim.o(i.MX_TIM8_Init) refers to memseta.o(.text) for __aeabi_memclr4
    tim.o(i.MX_TIM8_Init) refers to stm32f1xx_hal_tim.o(i.HAL_TIM_Base_Init) for HAL_TIM_Base_Init
    tim.o(i.MX_TIM8_Init) refers to main.o(i.Error_Handler) for Error_Handler
    tim.o(i.MX_TIM8_Init) refers to stm32f1xx_hal_tim.o(i.HAL_TIM_ConfigClockSource) for HAL_TIM_ConfigClockSource
    tim.o(i.MX_TIM8_Init) refers to stm32f1xx_hal_tim.o(i.HAL_TIM_PWM_Init) for HAL_TIM_PWM_Init
    tim.o(i.MX_TIM8_Init) refers to stm32f1xx_hal_tim_ex.o(i.HAL_TIMEx_MasterConfigSynchronization) for HAL_TIMEx_MasterConfigSynchronization
    tim.o(i.MX_TIM8_Init) refers to stm32f1xx_hal_tim.o(i.HAL_TIM_PWM_ConfigChannel) for HAL_TIM_PWM_ConfigChannel
    tim.o(i.MX_TIM8_Init) refers to stm32f1xx_hal_tim_ex.o(i.HAL_TIMEx_ConfigBreakDeadTime) for HAL_TIMEx_ConfigBreakDeadTime
    tim.o(i.MX_TIM8_Init) refers to tim.o(i.HAL_TIM_MspPostInit) for HAL_TIM_MspPostInit
    tim.o(i.MX_TIM8_Init) refers to tim.o(.bss) for .bss
    usart.o(i.HAL_UART_MspDeInit) refers to stm32f1xx_hal_gpio.o(i.HAL_GPIO_DeInit) for HAL_GPIO_DeInit
    usart.o(i.HAL_UART_MspDeInit) refers to stm32f1xx_hal_cortex.o(i.HAL_NVIC_DisableIRQ) for HAL_NVIC_DisableIRQ
    usart.o(i.HAL_UART_MspDeInit) refers to stm32f1xx_hal_dma.o(i.HAL_DMA_DeInit) for HAL_DMA_DeInit
    usart.o(i.HAL_UART_MspInit) refers to stm32f1xx_hal_gpio.o(i.HAL_GPIO_Init) for HAL_GPIO_Init
    usart.o(i.HAL_UART_MspInit) refers to stm32f1xx_hal_cortex.o(i.HAL_NVIC_SetPriority) for HAL_NVIC_SetPriority
    usart.o(i.HAL_UART_MspInit) refers to stm32f1xx_hal_cortex.o(i.HAL_NVIC_EnableIRQ) for HAL_NVIC_EnableIRQ
    usart.o(i.HAL_UART_MspInit) refers to stm32f1xx_hal_dma.o(i.HAL_DMA_Init) for HAL_DMA_Init
    usart.o(i.HAL_UART_MspInit) refers to main.o(i.Error_Handler) for Error_Handler
    usart.o(i.HAL_UART_MspInit) refers to usart.o(.bss) for .bss
    usart.o(i.MX_UART4_Init) refers to stm32f1xx_hal_uart.o(i.HAL_UART_Init) for HAL_UART_Init
    usart.o(i.MX_UART4_Init) refers to main.o(i.Error_Handler) for Error_Handler
    usart.o(i.MX_UART4_Init) refers to usart.o(.bss) for .bss
    usart.o(i.MX_UART5_Init) refers to stm32f1xx_hal_uart.o(i.HAL_UART_Init) for HAL_UART_Init
    usart.o(i.MX_UART5_Init) refers to main.o(i.Error_Handler) for Error_Handler
    usart.o(i.MX_UART5_Init) refers to usart.o(.bss) for .bss
    usart.o(i.MX_USART2_UART_Init) refers to stm32f1xx_hal_uart.o(i.HAL_UART_Init) for HAL_UART_Init
    usart.o(i.MX_USART2_UART_Init) refers to main.o(i.Error_Handler) for Error_Handler
    usart.o(i.MX_USART2_UART_Init) refers to usart.o(.bss) for .bss
    usart.o(i.MX_USART3_UART_Init) refers to stm32f1xx_hal_uart.o(i.HAL_UART_Init) for HAL_UART_Init
    usart.o(i.MX_USART3_UART_Init) refers to main.o(i.Error_Handler) for Error_Handler
    usart.o(i.MX_USART3_UART_Init) refers to usart.o(.bss) for .bss
    usart.o(i.hw_console_output) refers to usart.o(.bss) for .bss
    stm32f1xx_it.o(i.DMA1_Channel6_IRQHandler) refers to stm32f1xx_hal_dma.o(i.HAL_DMA_IRQHandler) for HAL_DMA_IRQHandler
    stm32f1xx_it.o(i.DMA1_Channel6_IRQHandler) refers to usart.o(.bss) for hdma_usart2_rx
    stm32f1xx_it.o(i.SysTick_Handler) refers to stm32f1xx_hal.o(i.HAL_IncTick) for HAL_IncTick
    stm32f1xx_it.o(i.TIM6_IRQHandler) refers to stm32f1xx_hal_tim.o(i.HAL_TIM_IRQHandler) for HAL_TIM_IRQHandler
    stm32f1xx_it.o(i.TIM6_IRQHandler) refers to tim.o(.bss) for htim6
    stm32f1xx_hal_msp.o(i.HAL_MspInit) refers to stm32f1xx_hal_cortex.o(i.HAL_NVIC_SetPriority) for HAL_NVIC_SetPriority
    system_stm32f1xx.o(i.SystemCoreClockUpdate) refers to system_stm32f1xx.o(.data) for .data
    system_stm32f1xx.o(i.SystemCoreClockUpdate) refers to system_stm32f1xx.o(.constdata) for .constdata
    bsp_buzzer.o(i.buzzer_off) refers to stm32f1xx_hal_gpio.o(i.HAL_GPIO_WritePin) for HAL_GPIO_WritePin
    bsp_buzzer.o(i.buzzer_on) refers to stm32f1xx_hal_gpio.o(i.HAL_GPIO_WritePin) for HAL_GPIO_WritePin
    bsp_led.o(i.LED_off) refers to stm32f1xx_hal_gpio.o(i.HAL_GPIO_WritePin) for HAL_GPIO_WritePin
    bsp_led.o(i.LED_on) refers to stm32f1xx_hal_gpio.o(i.HAL_GPIO_WritePin) for HAL_GPIO_WritePin
    bsp_led.o(i.LED_twinkle) refers to stm32f1xx_hal_gpio.o(i.HAL_GPIO_TogglePin) for HAL_GPIO_TogglePin
    bsp_led.o(i.Shine_o_f) refers to stm32f1xx_hal.o(i.HAL_Delay) for HAL_Delay
    bsp_led.o(i.Shine_o_f) refers to bsp_led.o(i.Shine_on) for Shine_on
    bsp_led.o(i.Shine_o_f) refers to bsp_led.o(i.Shine_off) for Shine_off
    bsp_led.o(i.Shine_off) refers to stm32f1xx_hal_gpio.o(i.HAL_GPIO_WritePin) for HAL_GPIO_WritePin
    bsp_led.o(i.Shine_on) refers to stm32f1xx_hal_gpio.o(i.HAL_GPIO_WritePin) for HAL_GPIO_WritePin
    bsp_led.o(i.usmart_led) refers to bsp_led.o(i.LED_on) for LED_on
    bsp_led.o(i.usmart_led) refers to bsp_led.o(i.LED_off) for LED_off
    bsp_servo_iic.o(i.angle_write) refers to dfltui.o(.text) for __aeabi_ui2d
    bsp_servo_iic.o(i.angle_write) refers to dmul.o(.text) for __aeabi_dmul
    bsp_servo_iic.o(i.angle_write) refers to dadd.o(.text) for __aeabi_dadd
    bsp_servo_iic.o(i.angle_write) refers to dfixui.o(.text) for __aeabi_d2uiz
    bsp_servo_iic.o(i.angle_write) refers to bsp_servo_iic.o(i.pca_setpwm) for pca_setpwm
    bsp_servo_iic.o(i.iic_ack) refers to stm32f1xx_hal_gpio.o(i.HAL_GPIO_WritePin) for HAL_GPIO_WritePin
    bsp_servo_iic.o(i.iic_ack) refers to bsp_delay.o(i.delay_us) for delay_us
    bsp_servo_iic.o(i.iic_not_ack) refers to stm32f1xx_hal_gpio.o(i.HAL_GPIO_WritePin) for HAL_GPIO_WritePin
    bsp_servo_iic.o(i.iic_not_ack) refers to bsp_delay.o(i.delay_us) for delay_us
    bsp_servo_iic.o(i.iic_read_byte) refers to stm32f1xx_hal_gpio.o(i.HAL_GPIO_WritePin) for HAL_GPIO_WritePin
    bsp_servo_iic.o(i.iic_read_byte) refers to bsp_delay.o(i.delay_us) for delay_us
    bsp_servo_iic.o(i.iic_read_byte) refers to stm32f1xx_hal_gpio.o(i.HAL_GPIO_ReadPin) for HAL_GPIO_ReadPin
    bsp_servo_iic.o(i.iic_read_byte) refers to bsp_servo_iic.o(i.iic_ack) for iic_ack
    bsp_servo_iic.o(i.iic_read_byte) refers to bsp_servo_iic.o(i.iic_not_ack) for iic_not_ack
    bsp_servo_iic.o(i.iic_send_byte) refers to stm32f1xx_hal_gpio.o(i.HAL_GPIO_WritePin) for HAL_GPIO_WritePin
    bsp_servo_iic.o(i.iic_send_byte) refers to bsp_delay.o(i.delay_us) for delay_us
    bsp_servo_iic.o(i.iic_start) refers to stm32f1xx_hal_gpio.o(i.HAL_GPIO_WritePin) for HAL_GPIO_WritePin
    bsp_servo_iic.o(i.iic_start) refers to bsp_delay.o(i.delay_us) for delay_us
    bsp_servo_iic.o(i.iic_stop) refers to stm32f1xx_hal_gpio.o(i.HAL_GPIO_WritePin) for HAL_GPIO_WritePin
    bsp_servo_iic.o(i.iic_stop) refers to bsp_delay.o(i.delay_us) for delay_us
    bsp_servo_iic.o(i.iic_wait_ack) refers to stm32f1xx_hal_gpio.o(i.HAL_GPIO_WritePin) for HAL_GPIO_WritePin
    bsp_servo_iic.o(i.iic_wait_ack) refers to bsp_delay.o(i.delay_us) for delay_us
    bsp_servo_iic.o(i.iic_wait_ack) refers to bsp_servo_iic.o(i.iic_stop) for iic_stop
    bsp_servo_iic.o(i.iic_wait_ack) refers to stm32f1xx_hal_gpio.o(i.HAL_GPIO_ReadPin) for HAL_GPIO_ReadPin
    bsp_servo_iic.o(i.pca_init) refers to bsp_servo_iic.o(i.pca_write) for pca_write
    bsp_servo_iic.o(i.pca_init) refers to bsp_servo_iic.o(i.pca_setfreq) for pca_setfreq
    bsp_servo_iic.o(i.pca_init) refers to bsp_delay.o(i.delay_ms) for delay_ms
    bsp_servo_iic.o(i.pca_read) refers to bsp_servo_iic.o(i.iic_start) for iic_start
    bsp_servo_iic.o(i.pca_read) refers to bsp_servo_iic.o(i.iic_send_byte) for iic_send_byte
    bsp_servo_iic.o(i.pca_read) refers to bsp_servo_iic.o(i.iic_wait_ack) for iic_wait_ack
    bsp_servo_iic.o(i.pca_read) refers to bsp_servo_iic.o(i.iic_read_byte) for iic_read_byte
    bsp_servo_iic.o(i.pca_read) refers to bsp_servo_iic.o(i.iic_stop) for iic_stop
    bsp_servo_iic.o(i.pca_setfreq) refers to f2d.o(.text) for __aeabi_f2d
    bsp_servo_iic.o(i.pca_setfreq) refers to dmul.o(.text) for __aeabi_dmul
    bsp_servo_iic.o(i.pca_setfreq) refers to d2f.o(.text) for __aeabi_d2f
    bsp_servo_iic.o(i.pca_setfreq) refers to dscalb.o(.text) for __ARM_scalbn
    bsp_servo_iic.o(i.pca_setfreq) refers to ddiv.o(.text) for __aeabi_ddiv
    bsp_servo_iic.o(i.pca_setfreq) refers to dadd.o(.text) for __aeabi_dsub
    bsp_servo_iic.o(i.pca_setfreq) refers to floor.o(i.floor) for floor
    bsp_servo_iic.o(i.pca_setfreq) refers to dfixui.o(.text) for __aeabi_d2uiz
    bsp_servo_iic.o(i.pca_setfreq) refers to bsp_servo_iic.o(i.pca_read) for pca_read
    bsp_servo_iic.o(i.pca_setfreq) refers to bsp_servo_iic.o(i.pca_write) for pca_write
    bsp_servo_iic.o(i.pca_setfreq) refers to stm32f1xx_hal.o(i.HAL_Delay) for HAL_Delay
    bsp_servo_iic.o(i.pca_setpwm) refers to bsp_servo_iic.o(i.pca_write) for pca_write
    bsp_servo_iic.o(i.pca_write) refers to bsp_servo_iic.o(i.iic_start) for iic_start
    bsp_servo_iic.o(i.pca_write) refers to bsp_servo_iic.o(i.iic_send_byte) for iic_send_byte
    bsp_servo_iic.o(i.pca_write) refers to bsp_servo_iic.o(i.iic_wait_ack) for iic_wait_ack
    bsp_servo_iic.o(i.pca_write) refers to bsp_servo_iic.o(i.iic_stop) for iic_stop
    bsp_delay.o(i.delay_init) refers to system_stm32f1xx.o(.data) for SystemCoreClock
    bsp_delay.o(i.delay_init) refers to bsp_delay.o(.data) for .data
    bsp_delay.o(i.delay_ms) refers to bsp_delay.o(.data) for .data
    bsp_delay.o(i.delay_us) refers to bsp_delay.o(.data) for .data
    bsp_imu.o(i.USART3_IRQHandler) refers to stm32f1xx_hal_uart.o(i.HAL_UART_DMAStop) for HAL_UART_DMAStop
    bsp_imu.o(i.USART3_IRQHandler) refers to dflti.o(.text) for __aeabi_i2d
    bsp_imu.o(i.USART3_IRQHandler) refers to dmul.o(.text) for __aeabi_dmul
    bsp_imu.o(i.USART3_IRQHandler) refers to dscalb.o(.text) for __ARM_scalbn
    bsp_imu.o(i.USART3_IRQHandler) refers to d2f.o(.text) for __aeabi_d2f
    bsp_imu.o(i.USART3_IRQHandler) refers to fadd.o(.text) for __aeabi_fsub
    bsp_imu.o(i.USART3_IRQHandler) refers to stm32f1xx_hal_uart.o(i.HAL_UART_Receive_DMA) for HAL_UART_Receive_DMA
    bsp_imu.o(i.USART3_IRQHandler) refers to stm32f1xx_hal_uart.o(i.HAL_UART_IRQHandler) for HAL_UART_IRQHandler
    bsp_imu.o(i.USART3_IRQHandler) refers to usart.o(.bss) for huart3
    bsp_imu.o(i.USART3_IRQHandler) refers to bsp_imu.o(.data) for .data
    bsp_imu.o(i.USART3_IRQHandler) refers to bsp_imu.o(.bss) for .bss
    bsp_imu.o(i.imu_receive_init) refers to stm32f1xx_hal_uart.o(i.HAL_UART_Receive_DMA) for HAL_UART_Receive_DMA
    bsp_imu.o(i.imu_receive_init) refers to usart.o(.bss) for huart3
    bsp_imu.o(i.imu_receive_init) refers to bsp_imu.o(.bss) for .bss
    bsp_motor.o(i.motor_pwm_enable) refers to stm32f1xx_hal_tim.o(i.HAL_TIM_PWM_Start) for HAL_TIM_PWM_Start
    bsp_motor.o(i.motor_pwm_enable) refers to stm32f1xx_hal_tim.o(i.HAL_TIM_Encoder_Start) for HAL_TIM_Encoder_Start
    bsp_motor.o(i.motor_pwm_enable) refers to tim.o(.bss) for htim1
    bsp_linefollower.o(i.LFB_receive_init) refers to usart.o(.bss) for huart4
    bsp_linefollower.o(i.LFB_send) refers to stm32f1xx_hal_uart.o(i.HAL_UART_Transmit) for HAL_UART_Transmit
    bsp_linefollower.o(i.LFB_send) refers to usart.o(.bss) for huart4
    bsp_linefollower.o(i.UART4_IRQHandler) refers to scaner.o(i.powCal) for powCal
    bsp_linefollower.o(i.UART4_IRQHandler) refers to usart.o(.bss) for huart4
    bsp_linefollower.o(i.UART4_IRQHandler) refers to bsp_linefollower.o(.data) for .data
    bsp_linefollower.o(i.UART4_IRQHandler) refers to bsp_linefollower.o(.bss) for .bss
    bsp_linefollower.o(i.UART4_IRQHandler) refers to scaner.o(.bss) for Scaner
    bsp_linefollower.o(i.UART4_IRQHandler) refers to scaner.o(.data) for scaner_set
    bsp_linefollower.o(i.show_line) refers to printfa.o(i.__0printf) for __2printf
    bsp_qrscan.o(i.QR_receive_init) refers to usart.o(.bss) for huart5
    bsp_qrscan.o(i.UART5_IRQHandler) refers to usart.o(.bss) for huart5
    bsp_qrscan.o(i.UART5_IRQHandler) refers to bsp_qrscan.o(.data) for .data
    bsp_qrscan.o(i.UART5_IRQHandler) refers to bsp_qrscan.o(.bss) for .bss
    bsp_qrscan.o(i.check_BW) refers to bsp_qrscan.o(.bss) for .bss
    openmv.o(i.USART2_IRQHandler) refers to stm32f1xx_hal_uart.o(i.HAL_UART_DMAStop) for HAL_UART_DMAStop
    openmv.o(i.USART2_IRQHandler) refers to stm32f1xx_hal_uart.o(i.HAL_UART_Receive_DMA) for HAL_UART_Receive_DMA
    openmv.o(i.USART2_IRQHandler) refers to stm32f1xx_hal_uart.o(i.HAL_UART_IRQHandler) for HAL_UART_IRQHandler
    openmv.o(i.USART2_IRQHandler) refers to usart.o(.bss) for huart2
    openmv.o(i.USART2_IRQHandler) refers to openmv.o(.data) for .data
    openmv.o(i.openmv_receive_init) refers to stm32f1xx_hal_uart.o(i.HAL_UART_Receive_DMA) for HAL_UART_Receive_DMA
    openmv.o(i.openmv_receive_init) refers to usart.o(.bss) for huart2
    openmv.o(i.openmv_receive_init) refers to openmv.o(.data) for .data
    speed_ctrl.o(i.CarBrake) refers to tim_it.o(i.pid_mode_switch) for pid_mode_switch
    speed_ctrl.o(i.CarBrake) refers to speed_ctrl.o(.data) for .data
    speed_ctrl.o(i.gradual_cal) refers to fadd.o(.text) for __aeabi_fsub
    speed_ctrl.o(i.gradual_cal) refers to cfcmple.o(.text) for __aeabi_cfcmpeq
    speed_ctrl.o(i.gradual_cal) refers to cfrcmple.o(.text) for __aeabi_cfrcmple
    turn.o(i.AdCircle) refers to fadd.o(.text) for __aeabi_fsub
    turn.o(i.AdCircle) refers to speed_ctrl.o(.data) for motor_all
    turn.o(i.Turn_Angle) refers to fadd.o(.text) for __aeabi_fsub
    turn.o(i.Turn_Angle) refers to turn.o(i.getAngleZ) for getAngleZ
    turn.o(i.Turn_Angle) refers to turn.o(i.need2turn) for need2turn
    turn.o(i.Turn_Angle) refers to pid.o(i.positional_PID) for positional_PID
    turn.o(i.Turn_Angle) refers to cfrcmple.o(.text) for __aeabi_cfrcmple
    turn.o(i.Turn_Angle) refers to pid.o(.bss) for gyroT_pid
    turn.o(i.Turn_Angle) refers to speed_ctrl.o(.data) for motor_all
    turn.o(i.Turn_Angle) refers to pid.o(.bss) for gyroT_pid_param
    turn.o(i.Turn_Angle360) refers to turn.o(i.Turn_Angle_Relative) for Turn_Angle_Relative
    turn.o(i.Turn_Angle360) refers to turn.o(i.getAngleZ) for getAngleZ
    turn.o(i.Turn_Angle360) refers to fadd.o(.text) for __aeabi_frsub
    turn.o(i.Turn_Angle360) refers to f2d.o(.text) for __aeabi_f2d
    turn.o(i.Turn_Angle360) refers to cdrcmple.o(.text) for __aeabi_cdrcmple
    turn.o(i.Turn_Angle360) refers to turn.o(.data) for .data
    turn.o(i.Turn_Angle_Relative) refers to turn.o(i.getAngleZ) for getAngleZ
    turn.o(i.Turn_Angle_Relative) refers to fadd.o(.text) for __aeabi_fadd
    turn.o(i.Turn_Angle_Relative) refers to tim_it.o(i.pid_mode_switch) for pid_mode_switch
    turn.o(i.Turn_Angle_Relative) refers to turn.o(.data) for .data
    turn.o(i.getAngleZ) refers to fadd.o(.text) for __aeabi_fadd
    turn.o(i.getAngleZ) refers to bsp_imu.o(.bss) for imu
    turn.o(i.mpuZreset) refers to turn.o(i.need2turn) for need2turn
    turn.o(i.mpuZreset) refers to bsp_imu.o(.bss) for imu
    turn.o(i.need2turn) refers to fadd.o(.text) for __aeabi_frsub
    turn.o(i.runWithAngle) refers to turn.o(i.getAngleZ) for getAngleZ
    turn.o(i.runWithAngle) refers to turn.o(i.need2turn) for need2turn
    turn.o(i.runWithAngle) refers to pid.o(i.positional_PID) for positional_PID
    turn.o(i.runWithAngle) refers to cfrcmple.o(.text) for __aeabi_cfrcmple
    turn.o(i.runWithAngle) refers to fmul.o(.text) for __aeabi_fmul
    turn.o(i.runWithAngle) refers to fdiv.o(.text) for __aeabi_fdiv
    turn.o(i.runWithAngle) refers to fadd.o(.text) for __aeabi_fadd
    turn.o(i.runWithAngle) refers to speed_ctrl.o(.data) for motor_all
    turn.o(i.runWithAngle) refers to pid.o(.bss) for gyroG_pid
    turn.o(i.runWithAngle) refers to pid.o(.bss) for gyroG_pid_param
    map.o(i.Cross) refers to map.o(i.getNextConnectNode) for getNextConnectNode
    map.o(i.Cross) refers to memcpya.o(.text) for __aeabi_memcpy4
    map.o(i.Cross) refers to dfltui.o(.text) for __aeabi_ui2d
    map.o(i.Cross) refers to dmul.o(.text) for __aeabi_dmul
    map.o(i.Cross) refers to f2d.o(.text) for __aeabi_f2d
    map.o(i.Cross) refers to cdrcmple.o(.text) for __aeabi_cdrcmple
    map.o(i.Cross) refers to turn.o(i.mpuZreset) for mpuZreset
    map.o(i.Cross) refers to turn.o(i.getAngleZ) for getAngleZ
    map.o(i.Cross) refers to turn.o(i.need2turn) for need2turn
    map.o(i.Cross) refers to cdcmple.o(.text) for __aeabi_cdcmple
    map.o(i.Cross) refers to d2f.o(.text) for __aeabi_d2f
    map.o(i.Cross) refers to dscalb.o(.text) for __ARM_scalbn
    map.o(i.Cross) refers to fscalb.o(.text) for __ARM_scalbnf
    map.o(i.Cross) refers to map.o(i.map_function) for map_function
    map.o(i.Cross) refers to map.o(i.deal_arrive) for deal_arrive
    map.o(i.Cross) refers to bsp_buzzer.o(i.buzzer_on) for buzzer_on
    map.o(i.Cross) refers to bsp_delay.o(i.delay_ms) for delay_ms
    map.o(i.Cross) refers to bsp_buzzer.o(i.buzzer_off) for buzzer_off
    map.o(i.Cross) refers to fadd.o(.text) for __aeabi_fsub
    map.o(i.Cross) refers to tim_it.o(i.pid_mode_switch) for pid_mode_switch
    map.o(i.Cross) refers to speed_ctrl.o(i.CarBrake) for CarBrake
    map.o(i.Cross) refers to pid.o(i.motor_pid_clear) for motor_pid_clear
    map.o(i.Cross) refers to dadd.o(.text) for __aeabi_drsub
    map.o(i.Cross) refers to ddiv.o(.text) for __aeabi_ddiv
    map.o(i.Cross) refers to turn.o(i.AdCircle) for AdCircle
    map.o(i.Cross) refers to map.o(.data) for .data
    map.o(i.Cross) refers to map.o(.bss) for .bss
    map.o(i.Cross) refers to map_message.o(.data) for Node
    map.o(i.Cross) refers to speed_ctrl.o(.data) for motor_all
    map.o(i.Cross) refers to scaner.o(.bss) for Scaner
    map.o(i.Cross) refers to bsp_imu.o(.bss) for imu
    map.o(i.Cross) refers to scaner.o(.data) for scaner_set
    map.o(i.Cross) refers to turn.o(.data) for angle
    map.o(i.deal_arrive) refers to map.o(.bss) for .bss
    map.o(i.deal_arrive) refers to scaner.o(.bss) for Scaner
    map.o(i.deal_arrive) refers to map.o(.data) for .data
    map.o(i.getNextConnectNode) refers to map_message.o(.data) for ConnectionNum
    map.o(i.getNextConnectNode) refers to map_message.o(.data) for Address
    map.o(i.getNextConnectNode) refers to map_message.o(.data) for Node
    map.o(i.mapInit) refers to f2d.o(.text) for __aeabi_f2d
    map.o(i.mapInit) refers to dmul.o(.text) for __aeabi_dmul
    map.o(i.mapInit) refers to d2f.o(.text) for __aeabi_d2f
    map.o(i.mapInit) refers to map.o(.bss) for .bss
    map.o(i.mapInit) refers to map_message.o(.data) for Node
    map.o(i.map_function) refers to barrier.o(i.Stage) for Stage
    map.o(i.map_function) refers to barrier.o(i.Barrier_Bridge) for Barrier_Bridge
    map.o(i.map_function) refers to barrier.o(i.Barrier_Hill) for Barrier_Hill
    map.o(i.map_function) refers to barrier.o(i.Sword_Mountain) for Sword_Mountain
    map.o(i.map_function) refers to barrier.o(i.view) for view
    map.o(i.map_function) refers to barrier.o(i.view1) for view1
    map.o(i.map_function) refers to barrier.o(i.back) for back
    map.o(i.map_function) refers to barrier.o(i.South_Pole) for South_Pole
    map.o(i.map_function) refers to barrier.o(i.QQB_1) for QQB_1
    map.o(i.map_function) refers to barrier.o(i.Barrier_WavedPlate) for Barrier_WavedPlate
    map.o(i.map_function) refers to barrier.o(i.door) for door
    map.o(i.map_function) refers to barrier.o(i.Barrier_HighMountain) for Barrier_HighMountain
    map.o(i.map_function) refers to barrier.o(i.S_curve) for S_curve
    map.o(i.map_function) refers to barrier.o(i.ignore_node) for ignore_node
    map.o(i.map_function) refers to barrier.o(i.undermou) for undermou
    barrier.o(i.Anti_Pshake) refers to stm32f1xx_hal.o(i.HAL_Delay) for HAL_Delay
    barrier.o(i.Anti_Pshake) refers to fflti.o(.text) for __aeabi_i2f
    barrier.o(i.Anti_Pshake) refers to fadd.o(.text) for __aeabi_fadd
    barrier.o(i.Anti_Pshake) refers to ffixi.o(.text) for __aeabi_f2iz
    barrier.o(i.Anti_Pshake) refers to bsp_imu.o(.bss) for imu
    barrier.o(i.Anti_encoder) refers to stm32f1xx_hal.o(i.HAL_Delay) for HAL_Delay
    barrier.o(i.Anti_encoder) refers to bsp_motor.o(i.read_encoder) for read_encoder
    barrier.o(i.Anti_shake) refers to stm32f1xx_hal.o(i.HAL_Delay) for HAL_Delay
    barrier.o(i.Barrier_Bridge) refers to tim_it.o(i.pid_mode_switch) for pid_mode_switch
    barrier.o(i.Barrier_Bridge) refers to memcpya.o(.text) for __aeabi_memcpy4
    barrier.o(i.Barrier_Bridge) refers to fadd.o(.text) for __aeabi_fsub
    barrier.o(i.Barrier_Bridge) refers to bsp_delay.o(i.delay_ms) for delay_ms
    barrier.o(i.Barrier_Bridge) refers to speed_ctrl.o(.data) for motor_all
    barrier.o(i.Barrier_Bridge) refers to bsp_imu.o(.bss) for imu
    barrier.o(i.Barrier_Bridge) refers to map.o(.bss) for nodesr
    barrier.o(i.Barrier_Bridge) refers to turn.o(.data) for angle
    barrier.o(i.Barrier_Bridge) refers to pid.o(.bss) for gyroG_pid_param
    barrier.o(i.Barrier_Bridge) refers to bsp_linefollower.o(.data) for infrared
    barrier.o(i.Barrier_Down_HighMountain) refers to bsp_buzzer.o(i.buzzer_on) for buzzer_on
    barrier.o(i.Barrier_Down_HighMountain) refers to tim_it.o(i.pid_mode_switch) for pid_mode_switch
    barrier.o(i.Barrier_Down_HighMountain) refers to motion.o(i.actions) for actions
    barrier.o(i.Barrier_Down_HighMountain) refers to turn.o(i.getAngleZ) for getAngleZ
    barrier.o(i.Barrier_Down_HighMountain) refers to bsp_buzzer.o(i.buzzer_off) for buzzer_off
    barrier.o(i.Barrier_Down_HighMountain) refers to speed_ctrl.o(.data) for motor_all
    barrier.o(i.Barrier_Down_HighMountain) refers to bsp_imu.o(.bss) for imu
    barrier.o(i.Barrier_Down_HighMountain) refers to scaner.o(.bss) for Scaner
    barrier.o(i.Barrier_Down_HighMountain) refers to turn.o(.data) for angle
    barrier.o(i.Barrier_HighMountain) refers to memcpya.o(.text) for __aeabi_memcpy4
    barrier.o(i.Barrier_HighMountain) refers to tim_it.o(i.pid_mode_switch) for pid_mode_switch
    barrier.o(i.Barrier_HighMountain) refers to barrier.o(i.Anti_shake) for Anti_shake
    barrier.o(i.Barrier_HighMountain) refers to speed_ctrl.o(i.CarBrake) for CarBrake
    barrier.o(i.Barrier_HighMountain) refers to turn.o(i.mpuZreset) for mpuZreset
    barrier.o(i.Barrier_HighMountain) refers to fadd.o(.text) for __aeabi_fsub
    barrier.o(i.Barrier_HighMountain) refers to bsp_led.o(i.Shine_o_f) for Shine_o_f
    barrier.o(i.Barrier_HighMountain) refers to motion.o(i.actions) for actions
    barrier.o(i.Barrier_HighMountain) refers to bsp_delay.o(i.delay_ms) for delay_ms
    barrier.o(i.Barrier_HighMountain) refers to turn.o(i.Turn_Angle_Relative) for Turn_Angle_Relative
    barrier.o(i.Barrier_HighMountain) refers to turn.o(i.getAngleZ) for getAngleZ
    barrier.o(i.Barrier_HighMountain) refers to f2d.o(.text) for __aeabi_f2d
    barrier.o(i.Barrier_HighMountain) refers to cdrcmple.o(.text) for __aeabi_cdrcmple
    barrier.o(i.Barrier_HighMountain) refers to bsp_qrscan.o(i.check_BW) for check_BW
    barrier.o(i.Barrier_HighMountain) refers to pid.o(i.motor_pid_clear) for motor_pid_clear
    barrier.o(i.Barrier_HighMountain) refers to stm32f1xx_hal.o(i.HAL_Delay) for HAL_Delay
    barrier.o(i.Barrier_HighMountain) refers to barrier.o(i.Barrier_Down_HighMountain) for Barrier_Down_HighMountain
    barrier.o(i.Barrier_HighMountain) refers to pid.o(.bss) for line_pid_param
    barrier.o(i.Barrier_HighMountain) refers to speed_ctrl.o(.data) for motor_all
    barrier.o(i.Barrier_HighMountain) refers to bsp_imu.o(.bss) for imu
    barrier.o(i.Barrier_HighMountain) refers to map.o(.bss) for nodesr
    barrier.o(i.Barrier_HighMountain) refers to turn.o(.data) for angle
    barrier.o(i.Barrier_Hill) refers to memcpya.o(.text) for __aeabi_memcpy4
    barrier.o(i.Barrier_Hill) refers to tim_it.o(i.pid_mode_switch) for pid_mode_switch
    barrier.o(i.Barrier_Hill) refers to pid.o(.bss) for line_pid_param
    barrier.o(i.Barrier_Hill) refers to speed_ctrl.o(.data) for motor_all
    barrier.o(i.Barrier_Hill) refers to bsp_imu.o(.bss) for imu
    barrier.o(i.Barrier_Hill) refers to map.o(.bss) for nodesr
    barrier.o(i.Barrier_WavedPlate) refers to tim_it.o(i.pid_mode_switch) for pid_mode_switch
    barrier.o(i.Barrier_WavedPlate) refers to fadd.o(.text) for __aeabi_fsub
    barrier.o(i.Barrier_WavedPlate) refers to cfcmple.o(.text) for __aeabi_cfcmple
    barrier.o(i.Barrier_WavedPlate) refers to speed_ctrl.o(.data) for motor_all
    barrier.o(i.Barrier_WavedPlate) refers to map.o(.bss) for nodesr
    barrier.o(i.QQB_1) refers to memcpya.o(.text) for __aeabi_memcpy4
    barrier.o(i.QQB_1) refers to pid.o(i.motor_pid_clear) for motor_pid_clear
    barrier.o(i.QQB_1) refers to tim_it.o(i.pid_mode_switch) for pid_mode_switch
    barrier.o(i.QQB_1) refers to speed_ctrl.o(i.CarBrake) for CarBrake
    barrier.o(i.QQB_1) refers to bsp_buzzer.o(i.buzzer_on) for buzzer_on
    barrier.o(i.QQB_1) refers to turn.o(i.getAngleZ) for getAngleZ
    barrier.o(i.QQB_1) refers to fadd.o(.text) for __aeabi_frsub
    barrier.o(i.QQB_1) refers to f2d.o(.text) for __aeabi_f2d
    barrier.o(i.QQB_1) refers to cdrcmple.o(.text) for __aeabi_cdrcmple
    barrier.o(i.QQB_1) refers to bsp_buzzer.o(i.buzzer_off) for buzzer_off
    barrier.o(i.QQB_1) refers to cdcmple.o(.text) for __aeabi_cdcmple
    barrier.o(i.QQB_1) refers to pid.o(.bss) for line_pid_param
    barrier.o(i.QQB_1) refers to speed_ctrl.o(.data) for motor_all
    barrier.o(i.QQB_1) refers to scaner.o(.constdata) for line_weight
    barrier.o(i.QQB_1) refers to scaner.o(.data) for scaner_set
    barrier.o(i.QQB_1) refers to map.o(.bss) for nodesr
    barrier.o(i.QQB_1) refers to turn.o(.data) for angle
    barrier.o(i.QQB_1) refers to bsp_imu.o(.bss) for imu
    barrier.o(i.QQB_1) refers to bsp_linefollower.o(.data) for infrared
    barrier.o(i.S_curve) refers to memcpya.o(.text) for __aeabi_memcpy4
    barrier.o(i.S_curve) refers to fadd.o(.text) for __aeabi_fsub
    barrier.o(i.S_curve) refers to turn.o(i.getAngleZ) for getAngleZ
    barrier.o(i.S_curve) refers to pid.o(.bss) for line_pid_param
    barrier.o(i.S_curve) refers to speed_ctrl.o(.data) for motor_all
    barrier.o(i.S_curve) refers to map.o(.bss) for nodesr
    barrier.o(i.S_curve) refers to scaner.o(.constdata) for line_weight
    barrier.o(i.S_curve) refers to scaner.o(.data) for scaner_set
    barrier.o(i.South_Pole) refers to memcpya.o(.text) for __aeabi_memcpy4
    barrier.o(i.South_Pole) refers to tim_it.o(i.pid_mode_switch) for pid_mode_switch
    barrier.o(i.South_Pole) refers to turn.o(i.getAngleZ) for getAngleZ
    barrier.o(i.South_Pole) refers to fadd.o(.text) for __aeabi_fsub
    barrier.o(i.South_Pole) refers to barrier.o(i.Anti_shake) for Anti_shake
    barrier.o(i.South_Pole) refers to speed_ctrl.o(i.CarBrake) for CarBrake
    barrier.o(i.South_Pole) refers to turn.o(i.mpuZreset) for mpuZreset
    barrier.o(i.South_Pole) refers to bsp_led.o(i.Shine_o_f) for Shine_o_f
    barrier.o(i.South_Pole) refers to motion.o(i.actions) for actions
    barrier.o(i.South_Pole) refers to bsp_delay.o(i.delay_ms) for delay_ms
    barrier.o(i.South_Pole) refers to turn.o(i.Turn_Angle_Relative) for Turn_Angle_Relative
    barrier.o(i.South_Pole) refers to f2d.o(.text) for __aeabi_f2d
    barrier.o(i.South_Pole) refers to cdrcmple.o(.text) for __aeabi_cdrcmple
    barrier.o(i.South_Pole) refers to bsp_qrscan.o(i.check_BW) for check_BW
    barrier.o(i.South_Pole) refers to turn.o(i.Turn_Angle360) for Turn_Angle360
    barrier.o(i.South_Pole) refers to pid.o(i.motor_pid_clear) for motor_pid_clear
    barrier.o(i.South_Pole) refers to cfcmple.o(.text) for __aeabi_cfcmple
    barrier.o(i.South_Pole) refers to pid.o(.bss) for line_pid_param
    barrier.o(i.South_Pole) refers to speed_ctrl.o(.data) for motor_all
    barrier.o(i.South_Pole) refers to bsp_imu.o(.bss) for imu
    barrier.o(i.South_Pole) refers to turn.o(.data) for angle
    barrier.o(i.South_Pole) refers to map.o(.bss) for nodesr
    barrier.o(i.Stage) refers to tim_it.o(i.pid_mode_switch) for pid_mode_switch
    barrier.o(i.Stage) refers to turn.o(i.getAngleZ) for getAngleZ
    barrier.o(i.Stage) refers to barrier.o(i.Anti_shake) for Anti_shake
    barrier.o(i.Stage) refers to fadd.o(.text) for __aeabi_fsub
    barrier.o(i.Stage) refers to speed_ctrl.o(i.CarBrake) for CarBrake
    barrier.o(i.Stage) refers to stm32f1xx_hal.o(i.HAL_Delay) for HAL_Delay
    barrier.o(i.Stage) refers to turn.o(i.mpuZreset) for mpuZreset
    barrier.o(i.Stage) refers to pid.o(i.motor_pid_clear) for motor_pid_clear
    barrier.o(i.Stage) refers to barrier.o(i.Stage_P2) for Stage_P2
    barrier.o(i.Stage) refers to turn.o(i.Turn_Angle_Relative) for Turn_Angle_Relative
    barrier.o(i.Stage) refers to f2d.o(.text) for __aeabi_f2d
    barrier.o(i.Stage) refers to cdrcmple.o(.text) for __aeabi_cdrcmple
    barrier.o(i.Stage) refers to bsp_led.o(i.Shine_o_f) for Shine_o_f
    barrier.o(i.Stage) refers to motion.o(i.actions) for actions
    barrier.o(i.Stage) refers to bsp_delay.o(i.delay_ms) for delay_ms
    barrier.o(i.Stage) refers to bsp_qrscan.o(i.check_BW) for check_BW
    barrier.o(i.Stage) refers to turn.o(i.Turn_Angle360) for Turn_Angle360
    barrier.o(i.Stage) refers to map.o(.bss) for nodesr
    barrier.o(i.Stage) refers to bsp_imu.o(.bss) for imu
    barrier.o(i.Stage) refers to turn.o(.data) for angle
    barrier.o(i.Stage) refers to speed_ctrl.o(.data) for motor_all
    barrier.o(i.Stage) refers to bsp_qrscan.o(.bss) for BW_num
    barrier.o(i.Stage_P2) refers to turn.o(i.getAngleZ) for getAngleZ
    barrier.o(i.Stage_P2) refers to tim_it.o(i.pid_mode_switch) for pid_mode_switch
    barrier.o(i.Stage_P2) refers to speed_ctrl.o(i.CarBrake) for CarBrake
    barrier.o(i.Stage_P2) refers to turn.o(i.Turn_Angle_Relative) for Turn_Angle_Relative
    barrier.o(i.Stage_P2) refers to fadd.o(.text) for __aeabi_frsub
    barrier.o(i.Stage_P2) refers to f2d.o(.text) for __aeabi_f2d
    barrier.o(i.Stage_P2) refers to cdrcmple.o(.text) for __aeabi_cdrcmple
    barrier.o(i.Stage_P2) refers to pid.o(i.motor_pid_clear) for motor_pid_clear
    barrier.o(i.Stage_P2) refers to bsp_imu.o(.bss) for imu
    barrier.o(i.Stage_P2) refers to turn.o(.data) for angle
    barrier.o(i.Stage_P2) refers to speed_ctrl.o(.data) for motor_all
    barrier.o(i.Stage_P2) refers to map.o(.bss) for nodesr
    barrier.o(i.Sword_Mountain) refers to memcpya.o(.text) for __aeabi_memcpy4
    barrier.o(i.Sword_Mountain) refers to fadd.o(.text) for __aeabi_fsub
    barrier.o(i.Sword_Mountain) refers to turn.o(i.getAngleZ) for getAngleZ
    barrier.o(i.Sword_Mountain) refers to tim_it.o(i.pid_mode_switch) for pid_mode_switch
    barrier.o(i.Sword_Mountain) refers to bsp_buzzer.o(i.buzzer_on) for buzzer_on
    barrier.o(i.Sword_Mountain) refers to bsp_buzzer.o(i.buzzer_off) for buzzer_off
    barrier.o(i.Sword_Mountain) refers to pid.o(.bss) for line_pid_param
    barrier.o(i.Sword_Mountain) refers to speed_ctrl.o(.data) for motor_all
    barrier.o(i.Sword_Mountain) refers to turn.o(.data) for angle
    barrier.o(i.Sword_Mountain) refers to bsp_imu.o(.bss) for imu
    barrier.o(i.Sword_Mountain) refers to map.o(.bss) for nodesr
    barrier.o(i.back) refers to tim_it.o(i.pid_mode_switch) for pid_mode_switch
    barrier.o(i.back) refers to speed_ctrl.o(i.CarBrake) for CarBrake
    barrier.o(i.back) refers to turn.o(i.getAngleZ) for getAngleZ
    barrier.o(i.back) refers to fadd.o(.text) for __aeabi_frsub
    barrier.o(i.back) refers to f2d.o(.text) for __aeabi_f2d
    barrier.o(i.back) refers to cdrcmple.o(.text) for __aeabi_cdrcmple
    barrier.o(i.back) refers to pid.o(i.motor_pid_clear) for motor_pid_clear
    barrier.o(i.back) refers to pid.o(.bss) for motor_L1
    barrier.o(i.back) refers to bsp_linefollower.o(.data) for infrared
    barrier.o(i.back) refers to map.o(.bss) for nodesr
    barrier.o(i.back) refers to turn.o(.data) for angle
    barrier.o(i.door) refers to tim_it.o(i.pid_mode_switch) for pid_mode_switch
    barrier.o(i.door) refers to barrier.o(i.route_reset) for route_reset
    barrier.o(i.door) refers to bsp_buzzer.o(i.buzzer_on) for buzzer_on
    barrier.o(i.door) refers to speed_ctrl.o(i.CarBrake) for CarBrake
    barrier.o(i.door) refers to stm32f1xx_hal.o(i.HAL_Delay) for HAL_Delay
    barrier.o(i.door) refers to bsp_buzzer.o(i.buzzer_off) for buzzer_off
    barrier.o(i.door) refers to fadd.o(.text) for __aeabi_fsub
    barrier.o(i.door) refers to turn.o(i.Turn_Angle_Relative) for Turn_Angle_Relative
    barrier.o(i.door) refers to turn.o(i.getAngleZ) for getAngleZ
    barrier.o(i.door) refers to f2d.o(.text) for __aeabi_f2d
    barrier.o(i.door) refers to cdrcmple.o(.text) for __aeabi_cdrcmple
    barrier.o(i.door) refers to map.o(i.getNextConnectNode) for getNextConnectNode
    barrier.o(i.door) refers to memcpya.o(.text) for __aeabi_memcpy4
    barrier.o(i.door) refers to speed_ctrl.o(.data) for motor_all
    barrier.o(i.door) refers to barrier.o(.data) for .data
    barrier.o(i.door) refers to map.o(.data) for map
    barrier.o(i.door) refers to map.o(.bss) for nodesr
    barrier.o(i.door) refers to turn.o(.data) for angle
    barrier.o(i.door) refers to openmv.o(.data) for value
    barrier.o(i.door) refers to map_message.o(.data) for Node
    barrier.o(i.door) refers to scaner.o(.bss) for Scaner
    barrier.o(i.ignore_node) refers to map.o(.bss) for nodesr
    barrier.o(i.route_reset) refers to map.o(i.getNextConnectNode) for getNextConnectNode
    barrier.o(i.route_reset) refers to memcpya.o(.text) for __aeabi_memcpy4
    barrier.o(i.route_reset) refers to map.o(.data) for map
    barrier.o(i.route_reset) refers to map_message.o(.data) for Node
    barrier.o(i.route_reset) refers to map.o(.bss) for nodesr
    barrier.o(i.route_reset) refers to map.o(.data) for door4route
    barrier.o(i.route_reset) refers to map.o(.data) for door1route
    barrier.o(i.route_reset) refers to map.o(.data) for door2route
    barrier.o(i.route_reset) refers to map.o(.data) for door3route
    barrier.o(i.undermou) refers to fadd.o(.text) for __aeabi_fsub
    barrier.o(i.undermou) refers to bsp_buzzer.o(i.buzzer_on) for buzzer_on
    barrier.o(i.undermou) refers to map.o(i.deal_arrive) for deal_arrive
    barrier.o(i.undermou) refers to bsp_imu.o(.bss) for imu
    barrier.o(i.undermou) refers to speed_ctrl.o(.data) for motor_all
    barrier.o(i.undermou) refers to map.o(.bss) for nodesr
    barrier.o(i.view) refers to bsp_delay.o(i.delay_ms) for delay_ms
    barrier.o(i.view) refers to tim_it.o(i.pid_mode_switch) for pid_mode_switch
    barrier.o(i.view) refers to fadd.o(.text) for __aeabi_fsub
    barrier.o(i.view) refers to speed_ctrl.o(i.CarBrake) for CarBrake
    barrier.o(i.view) refers to turn.o(i.Turn_Angle_Relative) for Turn_Angle_Relative
    barrier.o(i.view) refers to turn.o(i.getAngleZ) for getAngleZ
    barrier.o(i.view) refers to f2d.o(.text) for __aeabi_f2d
    barrier.o(i.view) refers to cdrcmple.o(.text) for __aeabi_cdrcmple
    barrier.o(i.view) refers to pid.o(i.motor_pid_clear) for motor_pid_clear
    barrier.o(i.view) refers to speed_ctrl.o(.data) for motor_all
    barrier.o(i.view) refers to pid.o(.bss) for motor_L1
    barrier.o(i.view) refers to turn.o(.data) for angle
    barrier.o(i.view) refers to map.o(.bss) for nodesr
    barrier.o(i.view1) refers to tim_it.o(i.pid_mode_switch) for pid_mode_switch
    barrier.o(i.view1) refers to bsp_delay.o(i.delay_ms) for delay_ms
    barrier.o(i.view1) refers to speed_ctrl.o(i.CarBrake) for CarBrake
    barrier.o(i.view1) refers to map.o(.bss) for nodesr
    scaner.o(i.Go_Line) refers to pid.o(i.positional_PID) for positional_PID
    scaner.o(i.Go_Line) refers to fdiv.o(.text) for __aeabi_fdiv
    scaner.o(i.Go_Line) refers to fmul.o(.text) for __aeabi_fmul
    scaner.o(i.Go_Line) refers to fadd.o(.text) for __aeabi_fsub
    scaner.o(i.Go_Line) refers to scaner.o(.bss) for .bss
    scaner.o(i.Go_Line) refers to pid.o(.bss) for line_pid_obj
    scaner.o(i.Go_Line) refers to scaner.o(.data) for .data
    scaner.o(i.Go_Line) refers to pid.o(.bss) for line_pid_param
    scaner.o(i.Go_Line) refers to speed_ctrl.o(.data) for motor_all
    scaner.o(i.powCal) refers to ffltui.o(.text) for __aeabi_ui2f
    scaner.o(i.powCal) refers to fmul.o(.text) for __aeabi_fmul
    scaner.o(i.powCal) refers to fadd.o(.text) for __aeabi_fadd
    scaner.o(i.powCal) refers to fflti.o(.text) for __aeabi_i2f
    scaner.o(i.powCal) refers to fdiv.o(.text) for __aeabi_fdiv
    scaner.o(i.powCal) refers to map.o(.bss) for nodesr
    scaner.o(i.powCal) refers to scaner.o(.constdata) for .constdata
    motion.o(i.Arrive) refers to motion.o(i.actions) for actions
    motion.o(i.Down_Body) refers to motion.o(i.actions) for actions
    motion.o(i.PreAction) refers to motion.o(i.actions) for actions
    motion.o(i.Stand) refers to motion.o(i.actions) for actions
    motion.o(i.Treasure) refers to motion.o(i.actions) for actions
    motion.o(i.actions) refers to bsp_servo_iic.o(i.angle_write) for angle_write
    motion.o(i.actions) refers to bsp_delay.o(i.delay_ms) for delay_ms
    motion.o(i.myAction) refers to bsp_led.o(i.Shine_o_f) for Shine_o_f
    motion.o(i.myAction) refers to motion.o(i.actions) for actions
    motion.o(i.myAction) refers to bsp_delay.o(i.delay_ms) for delay_ms
    motion.o(i.myAction) refers to turn.o(i.Turn_Angle_Relative) for Turn_Angle_Relative
    motion.o(i.myAction) refers to bsp_qrscan.o(i.check_BW) for check_BW
    motion.o(i.myAction) refers to turn.o(i.Turn_Angle360) for Turn_Angle360
    motion.o(i.myAction) refers to map.o(.bss) for nodesr
    motion.o(i.usmart_set_servo) refers to bsp_servo_iic.o(i.angle_write) for angle_write
    pid.o(i.incremental_PID) refers to fflti.o(.text) for __aeabi_i2f
    pid.o(i.incremental_PID) refers to cfrcmple.o(.text) for __aeabi_cfrcmple
    pid.o(i.incremental_PID) refers to cfcmple.o(.text) for __aeabi_cfcmple
    pid.o(i.incremental_PID) refers to fmul.o(.text) for __aeabi_fmul
    pid.o(i.incremental_PID) refers to fadd.o(.text) for __aeabi_fadd
    pid.o(i.motor_pid_clear) refers to memseta.o(.text) for __aeabi_memclr4
    pid.o(i.motor_pid_clear) refers to memcpya.o(.text) for __aeabi_memcpy4
    pid.o(i.motor_pid_clear) refers to pid.o(.bss) for .bss
    pid.o(i.pid_init) refers to pid.o(i.motor_pid_clear) for motor_pid_clear
    pid.o(i.pid_init) refers to pid.o(.bss) for .bss
    pid.o(i.positional_PID) refers to fadd.o(.text) for __aeabi_fsub
    pid.o(i.positional_PID) refers to cfrcmple.o(.text) for __aeabi_cfrcmple
    pid.o(i.positional_PID) refers to cfcmple.o(.text) for __aeabi_cfcmple
    pid.o(i.positional_PID) refers to fmul.o(.text) for __aeabi_fmul
    pid.o(i.usmart_pid) refers to ffltui.o(.text) for __aeabi_ui2f
    pid.o(i.usmart_pid) refers to fflti.o(.text) for __aeabi_i2f
    pid.o(i.usmart_pid) refers to fdiv.o(.text) for __aeabi_fdiv
    pid.o(i.usmart_pid) refers to f2d.o(.text) for __aeabi_f2d
    pid.o(i.usmart_pid) refers to printfa.o(i.__0printf) for __2printf
    pid.o(i.usmart_pid) refers to pid.o(.bss) for .bss
    sin_generate.o(i.sin_generator) refers to ffltui.o(.text) for __aeabi_ui2f
    sin_generate.o(i.sin_generator) refers to fmul.o(.text) for __aeabi_fmul
    sin_generate.o(i.sin_generator) refers to f2d.o(.text) for __aeabi_f2d
    sin_generate.o(i.sin_generator) refers to dmul.o(.text) for __aeabi_dmul
    sin_generate.o(i.sin_generator) refers to ddiv.o(.text) for __aeabi_ddiv
    sin_generate.o(i.sin_generator) refers to sin.o(i.sin) for sin
    sin_generate.o(i.sin_generator) refers to d2f.o(.text) for __aeabi_d2f
    tim_it.o(i.HAL_TIM_PeriodElapsedCallback) refers to bsp_led.o(i.LED_twinkle) for LED_twinkle
    tim_it.o(i.HAL_TIM_PeriodElapsedCallback) refers to bsp_motor.o(i.read_encoder) for read_encoder
    tim_it.o(i.HAL_TIM_PeriodElapsedCallback) refers to dflti.o(.text) for __aeabi_i2d
    tim_it.o(i.HAL_TIM_PeriodElapsedCallback) refers to dmul.o(.text) for __aeabi_dmul
    tim_it.o(i.HAL_TIM_PeriodElapsedCallback) refers to ddiv.o(.text) for __aeabi_ddiv
    tim_it.o(i.HAL_TIM_PeriodElapsedCallback) refers to d2f.o(.text) for __aeabi_d2f
    tim_it.o(i.HAL_TIM_PeriodElapsedCallback) refers to memcpya.o(.text) for __aeabi_memcpy4
    tim_it.o(i.HAL_TIM_PeriodElapsedCallback) refers to memseta.o(.text) for __aeabi_memclr4
    tim_it.o(i.HAL_TIM_PeriodElapsedCallback) refers to speed_ctrl.o(i.gradual_cal) for gradual_cal
    tim_it.o(i.HAL_TIM_PeriodElapsedCallback) refers to scaner.o(i.Go_Line) for Go_Line
    tim_it.o(i.HAL_TIM_PeriodElapsedCallback) refers to turn.o(i.Turn_Angle) for Turn_Angle
    tim_it.o(i.HAL_TIM_PeriodElapsedCallback) refers to ffixi.o(.text) for __aeabi_f2iz
    tim_it.o(i.HAL_TIM_PeriodElapsedCallback) refers to pid.o(i.incremental_PID) for incremental_PID
    tim_it.o(i.HAL_TIM_PeriodElapsedCallback) refers to bsp_motor.o(i.motor_set_pwm) for motor_set_pwm
    tim_it.o(i.HAL_TIM_PeriodElapsedCallback) refers to bsp_linefollower.o(i.LFB_send) for LFB_send
    tim_it.o(i.HAL_TIM_PeriodElapsedCallback) refers to turn.o(i.runWithAngle) for runWithAngle
    tim_it.o(i.HAL_TIM_PeriodElapsedCallback) refers to tim.o(.bss) for htim6
    tim_it.o(i.HAL_TIM_PeriodElapsedCallback) refers to tim_it.o(.data) for .data
    tim_it.o(i.HAL_TIM_PeriodElapsedCallback) refers to pid.o(.bss) for motor_L0
    tim_it.o(i.HAL_TIM_PeriodElapsedCallback) refers to speed_ctrl.o(.data) for motor_all
    tim_it.o(i.HAL_TIM_PeriodElapsedCallback) refers to speed_ctrl.o(.bss) for TC_speed
    tim_it.o(i.HAL_TIM_PeriodElapsedCallback) refers to speed_ctrl.o(.bss) for TG_speed
    tim_it.o(i.HAL_TIM_PeriodElapsedCallback) refers to turn.o(.data) for angle
    tim_it.o(i.HAL_TIM_PeriodElapsedCallback) refers to pid.o(.bss) for gyroG_pid
    tim_it.o(i.HAL_TIM_PeriodElapsedCallback) refers to pid.o(.bss) for line_pid_obj
    tim_it.o(i.HAL_TIM_PeriodElapsedCallback) refers to tim_it.o(.constdata) for .constdata
    tim_it.o(i.HAL_TIM_PeriodElapsedCallback) refers to pid.o(.bss) for gyroT_pid
    tim_it.o(i.pid_mode_switch) refers to memseta.o(.text) for __aeabi_memclr4
    tim_it.o(i.pid_mode_switch) refers to memcpya.o(.text) for __aeabi_memcpy4
    tim_it.o(i.pid_mode_switch) refers to speed_ctrl.o(.bss) for TG_speed
    tim_it.o(i.pid_mode_switch) refers to speed_ctrl.o(.bss) for TC_speed
    tim_it.o(i.pid_mode_switch) refers to tim_it.o(.data) for .data
    tim_it.o(i.pid_mode_switch) refers to pid.o(.bss) for gyroG_pid
    tim_it.o(i.pid_mode_switch) refers to pid.o(.bss) for line_pid_obj
    tim_it.o(i.pid_mode_switch) refers to pid.o(.bss) for gyroT_pid
    stm32f1xx_hal_tim.o(i.HAL_TIM_Base_DeInit) refers to tim.o(i.HAL_TIM_Base_MspDeInit) for HAL_TIM_Base_MspDeInit
    stm32f1xx_hal_tim.o(i.HAL_TIM_Base_Init) refers to tim.o(i.HAL_TIM_Base_MspInit) for HAL_TIM_Base_MspInit
    stm32f1xx_hal_tim.o(i.HAL_TIM_Base_Init) refers to stm32f1xx_hal_tim.o(i.TIM_Base_SetConfig) for TIM_Base_SetConfig
    stm32f1xx_hal_tim.o(i.HAL_TIM_Base_Start_DMA) refers to stm32f1xx_hal_dma.o(i.HAL_DMA_Start_IT) for HAL_DMA_Start_IT
    stm32f1xx_hal_tim.o(i.HAL_TIM_Base_Start_DMA) refers to stm32f1xx_hal_tim.o(i.TIM_DMAPeriodElapsedCplt) for TIM_DMAPeriodElapsedCplt
    stm32f1xx_hal_tim.o(i.HAL_TIM_Base_Start_DMA) refers to stm32f1xx_hal_tim.o(i.TIM_DMAPeriodElapsedHalfCplt) for TIM_DMAPeriodElapsedHalfCplt
    stm32f1xx_hal_tim.o(i.HAL_TIM_Base_Start_DMA) refers to stm32f1xx_hal_tim.o(i.TIM_DMAError) for TIM_DMAError
    stm32f1xx_hal_tim.o(i.HAL_TIM_Base_Stop_DMA) refers to stm32f1xx_hal_dma.o(i.HAL_DMA_Abort_IT) for HAL_DMA_Abort_IT
    stm32f1xx_hal_tim.o(i.HAL_TIM_ConfigClockSource) refers to stm32f1xx_hal_tim.o(i.TIM_ETR_SetConfig) for TIM_ETR_SetConfig
    stm32f1xx_hal_tim.o(i.HAL_TIM_ConfigClockSource) refers to stm32f1xx_hal_tim.o(i.TIM_TI1_ConfigInputStage) for TIM_TI1_ConfigInputStage
    stm32f1xx_hal_tim.o(i.HAL_TIM_ConfigClockSource) refers to stm32f1xx_hal_tim.o(i.TIM_ITRx_SetConfig) for TIM_ITRx_SetConfig
    stm32f1xx_hal_tim.o(i.HAL_TIM_ConfigClockSource) refers to stm32f1xx_hal_tim.o(i.TIM_TI2_ConfigInputStage) for TIM_TI2_ConfigInputStage
    stm32f1xx_hal_tim.o(i.HAL_TIM_ConfigOCrefClear) refers to stm32f1xx_hal_tim.o(i.TIM_ETR_SetConfig) for TIM_ETR_SetConfig
    stm32f1xx_hal_tim.o(i.HAL_TIM_DMABurst_MultiReadStart) refers to stm32f1xx_hal_dma.o(i.HAL_DMA_Start_IT) for HAL_DMA_Start_IT
    stm32f1xx_hal_tim.o(i.HAL_TIM_DMABurst_MultiReadStart) refers to stm32f1xx_hal_tim.o(i.TIM_DMAError) for TIM_DMAError
    stm32f1xx_hal_tim.o(i.HAL_TIM_DMABurst_MultiReadStart) refers to stm32f1xx_hal_tim.o(i.TIM_DMACaptureCplt) for TIM_DMACaptureCplt
    stm32f1xx_hal_tim.o(i.HAL_TIM_DMABurst_MultiReadStart) refers to stm32f1xx_hal_tim.o(i.TIM_DMACaptureHalfCplt) for TIM_DMACaptureHalfCplt
    stm32f1xx_hal_tim.o(i.HAL_TIM_DMABurst_MultiReadStart) refers to stm32f1xx_hal_tim.o(i.TIM_DMAPeriodElapsedCplt) for TIM_DMAPeriodElapsedCplt
    stm32f1xx_hal_tim.o(i.HAL_TIM_DMABurst_MultiReadStart) refers to stm32f1xx_hal_tim.o(i.TIM_DMAPeriodElapsedHalfCplt) for TIM_DMAPeriodElapsedHalfCplt
    stm32f1xx_hal_tim.o(i.HAL_TIM_DMABurst_MultiReadStart) refers to stm32f1xx_hal_tim_ex.o(i.TIMEx_DMACommutationCplt) for TIMEx_DMACommutationCplt
    stm32f1xx_hal_tim.o(i.HAL_TIM_DMABurst_MultiReadStart) refers to stm32f1xx_hal_tim_ex.o(i.TIMEx_DMACommutationHalfCplt) for TIMEx_DMACommutationHalfCplt
    stm32f1xx_hal_tim.o(i.HAL_TIM_DMABurst_MultiReadStart) refers to stm32f1xx_hal_tim.o(i.TIM_DMATriggerCplt) for TIM_DMATriggerCplt
    stm32f1xx_hal_tim.o(i.HAL_TIM_DMABurst_MultiReadStart) refers to stm32f1xx_hal_tim.o(i.TIM_DMATriggerHalfCplt) for TIM_DMATriggerHalfCplt
    stm32f1xx_hal_tim.o(i.HAL_TIM_DMABurst_MultiWriteStart) refers to stm32f1xx_hal_dma.o(i.HAL_DMA_Start_IT) for HAL_DMA_Start_IT
    stm32f1xx_hal_tim.o(i.HAL_TIM_DMABurst_MultiWriteStart) refers to stm32f1xx_hal_tim.o(i.TIM_DMAError) for TIM_DMAError
    stm32f1xx_hal_tim.o(i.HAL_TIM_DMABurst_MultiWriteStart) refers to stm32f1xx_hal_tim.o(i.TIM_DMADelayPulseCplt) for TIM_DMADelayPulseCplt
    stm32f1xx_hal_tim.o(i.HAL_TIM_DMABurst_MultiWriteStart) refers to stm32f1xx_hal_tim.o(i.TIM_DMADelayPulseHalfCplt) for TIM_DMADelayPulseHalfCplt
    stm32f1xx_hal_tim.o(i.HAL_TIM_DMABurst_MultiWriteStart) refers to stm32f1xx_hal_tim.o(i.TIM_DMAPeriodElapsedCplt) for TIM_DMAPeriodElapsedCplt
    stm32f1xx_hal_tim.o(i.HAL_TIM_DMABurst_MultiWriteStart) refers to stm32f1xx_hal_tim.o(i.TIM_DMAPeriodElapsedHalfCplt) for TIM_DMAPeriodElapsedHalfCplt
    stm32f1xx_hal_tim.o(i.HAL_TIM_DMABurst_MultiWriteStart) refers to stm32f1xx_hal_tim_ex.o(i.TIMEx_DMACommutationCplt) for TIMEx_DMACommutationCplt
    stm32f1xx_hal_tim.o(i.HAL_TIM_DMABurst_MultiWriteStart) refers to stm32f1xx_hal_tim_ex.o(i.TIMEx_DMACommutationHalfCplt) for TIMEx_DMACommutationHalfCplt
    stm32f1xx_hal_tim.o(i.HAL_TIM_DMABurst_MultiWriteStart) refers to stm32f1xx_hal_tim.o(i.TIM_DMATriggerCplt) for TIM_DMATriggerCplt
    stm32f1xx_hal_tim.o(i.HAL_TIM_DMABurst_MultiWriteStart) refers to stm32f1xx_hal_tim.o(i.TIM_DMATriggerHalfCplt) for TIM_DMATriggerHalfCplt
    stm32f1xx_hal_tim.o(i.HAL_TIM_DMABurst_ReadStart) refers to stm32f1xx_hal_tim.o(i.HAL_TIM_DMABurst_MultiReadStart) for HAL_TIM_DMABurst_MultiReadStart
    stm32f1xx_hal_tim.o(i.HAL_TIM_DMABurst_ReadStop) refers to stm32f1xx_hal_dma.o(i.HAL_DMA_Abort_IT) for HAL_DMA_Abort_IT
    stm32f1xx_hal_tim.o(i.HAL_TIM_DMABurst_WriteStart) refers to stm32f1xx_hal_tim.o(i.HAL_TIM_DMABurst_MultiWriteStart) for HAL_TIM_DMABurst_MultiWriteStart
    stm32f1xx_hal_tim.o(i.HAL_TIM_DMABurst_WriteStop) refers to stm32f1xx_hal_dma.o(i.HAL_DMA_Abort_IT) for HAL_DMA_Abort_IT
    stm32f1xx_hal_tim.o(i.HAL_TIM_Encoder_DeInit) refers to tim.o(i.HAL_TIM_Encoder_MspDeInit) for HAL_TIM_Encoder_MspDeInit
    stm32f1xx_hal_tim.o(i.HAL_TIM_Encoder_Init) refers to tim.o(i.HAL_TIM_Encoder_MspInit) for HAL_TIM_Encoder_MspInit
    stm32f1xx_hal_tim.o(i.HAL_TIM_Encoder_Init) refers to stm32f1xx_hal_tim.o(i.TIM_Base_SetConfig) for TIM_Base_SetConfig
    stm32f1xx_hal_tim.o(i.HAL_TIM_Encoder_Start) refers to stm32f1xx_hal_tim.o(i.TIM_CCxChannelCmd) for TIM_CCxChannelCmd
    stm32f1xx_hal_tim.o(i.HAL_TIM_Encoder_Start_DMA) refers to stm32f1xx_hal_dma.o(i.HAL_DMA_Start_IT) for HAL_DMA_Start_IT
    stm32f1xx_hal_tim.o(i.HAL_TIM_Encoder_Start_DMA) refers to stm32f1xx_hal_tim.o(i.TIM_CCxChannelCmd) for TIM_CCxChannelCmd
    stm32f1xx_hal_tim.o(i.HAL_TIM_Encoder_Start_DMA) refers to stm32f1xx_hal_tim.o(i.TIM_DMACaptureCplt) for TIM_DMACaptureCplt
    stm32f1xx_hal_tim.o(i.HAL_TIM_Encoder_Start_DMA) refers to stm32f1xx_hal_tim.o(i.TIM_DMACaptureHalfCplt) for TIM_DMACaptureHalfCplt
    stm32f1xx_hal_tim.o(i.HAL_TIM_Encoder_Start_DMA) refers to stm32f1xx_hal_tim.o(i.TIM_DMAError) for TIM_DMAError
    stm32f1xx_hal_tim.o(i.HAL_TIM_Encoder_Start_IT) refers to stm32f1xx_hal_tim.o(i.TIM_CCxChannelCmd) for TIM_CCxChannelCmd
    stm32f1xx_hal_tim.o(i.HAL_TIM_Encoder_Stop) refers to stm32f1xx_hal_tim.o(i.TIM_CCxChannelCmd) for TIM_CCxChannelCmd
    stm32f1xx_hal_tim.o(i.HAL_TIM_Encoder_Stop_DMA) refers to stm32f1xx_hal_tim.o(i.TIM_CCxChannelCmd) for TIM_CCxChannelCmd
    stm32f1xx_hal_tim.o(i.HAL_TIM_Encoder_Stop_DMA) refers to stm32f1xx_hal_dma.o(i.HAL_DMA_Abort_IT) for HAL_DMA_Abort_IT
    stm32f1xx_hal_tim.o(i.HAL_TIM_Encoder_Stop_IT) refers to stm32f1xx_hal_tim.o(i.TIM_CCxChannelCmd) for TIM_CCxChannelCmd
    stm32f1xx_hal_tim.o(i.HAL_TIM_IC_ConfigChannel) refers to stm32f1xx_hal_tim.o(i.TIM_TI4_SetConfig) for TIM_TI4_SetConfig
    stm32f1xx_hal_tim.o(i.HAL_TIM_IC_ConfigChannel) refers to stm32f1xx_hal_tim.o(i.TIM_TI1_SetConfig) for TIM_TI1_SetConfig
    stm32f1xx_hal_tim.o(i.HAL_TIM_IC_ConfigChannel) refers to stm32f1xx_hal_tim.o(i.TIM_TI2_SetConfig) for TIM_TI2_SetConfig
    stm32f1xx_hal_tim.o(i.HAL_TIM_IC_ConfigChannel) refers to stm32f1xx_hal_tim.o(i.TIM_TI3_SetConfig) for TIM_TI3_SetConfig
    stm32f1xx_hal_tim.o(i.HAL_TIM_IC_DeInit) refers to stm32f1xx_hal_tim.o(i.HAL_TIM_IC_MspDeInit) for HAL_TIM_IC_MspDeInit
    stm32f1xx_hal_tim.o(i.HAL_TIM_IC_Init) refers to stm32f1xx_hal_tim.o(i.HAL_TIM_IC_MspInit) for HAL_TIM_IC_MspInit
    stm32f1xx_hal_tim.o(i.HAL_TIM_IC_Init) refers to stm32f1xx_hal_tim.o(i.TIM_Base_SetConfig) for TIM_Base_SetConfig
    stm32f1xx_hal_tim.o(i.HAL_TIM_IC_Start) refers to stm32f1xx_hal_tim.o(i.TIM_CCxChannelCmd) for TIM_CCxChannelCmd
    stm32f1xx_hal_tim.o(i.HAL_TIM_IC_Start_DMA) refers to stm32f1xx_hal_tim.o(i.TIM_CCxChannelCmd) for TIM_CCxChannelCmd
    stm32f1xx_hal_tim.o(i.HAL_TIM_IC_Start_DMA) refers to stm32f1xx_hal_dma.o(i.HAL_DMA_Start_IT) for HAL_DMA_Start_IT
    stm32f1xx_hal_tim.o(i.HAL_TIM_IC_Start_DMA) refers to stm32f1xx_hal_tim.o(i.TIM_DMACaptureCplt) for TIM_DMACaptureCplt
    stm32f1xx_hal_tim.o(i.HAL_TIM_IC_Start_DMA) refers to stm32f1xx_hal_tim.o(i.TIM_DMACaptureHalfCplt) for TIM_DMACaptureHalfCplt
    stm32f1xx_hal_tim.o(i.HAL_TIM_IC_Start_DMA) refers to stm32f1xx_hal_tim.o(i.TIM_DMAError) for TIM_DMAError
    stm32f1xx_hal_tim.o(i.HAL_TIM_IC_Start_IT) refers to stm32f1xx_hal_tim.o(i.TIM_CCxChannelCmd) for TIM_CCxChannelCmd
    stm32f1xx_hal_tim.o(i.HAL_TIM_IC_Stop) refers to stm32f1xx_hal_tim.o(i.TIM_CCxChannelCmd) for TIM_CCxChannelCmd
    stm32f1xx_hal_tim.o(i.HAL_TIM_IC_Stop_DMA) refers to stm32f1xx_hal_tim.o(i.TIM_CCxChannelCmd) for TIM_CCxChannelCmd
    stm32f1xx_hal_tim.o(i.HAL_TIM_IC_Stop_DMA) refers to stm32f1xx_hal_dma.o(i.HAL_DMA_Abort_IT) for HAL_DMA_Abort_IT
    stm32f1xx_hal_tim.o(i.HAL_TIM_IC_Stop_IT) refers to stm32f1xx_hal_tim.o(i.TIM_CCxChannelCmd) for TIM_CCxChannelCmd
    stm32f1xx_hal_tim.o(i.HAL_TIM_IRQHandler) refers to stm32f1xx_hal_tim.o(i.HAL_TIM_IC_CaptureCallback) for HAL_TIM_IC_CaptureCallback
    stm32f1xx_hal_tim.o(i.HAL_TIM_IRQHandler) refers to stm32f1xx_hal_tim.o(i.HAL_TIM_OC_DelayElapsedCallback) for HAL_TIM_OC_DelayElapsedCallback
    stm32f1xx_hal_tim.o(i.HAL_TIM_IRQHandler) refers to stm32f1xx_hal_tim.o(i.HAL_TIM_PWM_PulseFinishedCallback) for HAL_TIM_PWM_PulseFinishedCallback
    stm32f1xx_hal_tim.o(i.HAL_TIM_IRQHandler) refers to tim_it.o(i.HAL_TIM_PeriodElapsedCallback) for HAL_TIM_PeriodElapsedCallback
    stm32f1xx_hal_tim.o(i.HAL_TIM_IRQHandler) refers to stm32f1xx_hal_tim_ex.o(i.HAL_TIMEx_BreakCallback) for HAL_TIMEx_BreakCallback
    stm32f1xx_hal_tim.o(i.HAL_TIM_IRQHandler) refers to stm32f1xx_hal_tim.o(i.HAL_TIM_TriggerCallback) for HAL_TIM_TriggerCallback
    stm32f1xx_hal_tim.o(i.HAL_TIM_IRQHandler) refers to stm32f1xx_hal_tim_ex.o(i.HAL_TIMEx_CommutCallback) for HAL_TIMEx_CommutCallback
    stm32f1xx_hal_tim.o(i.HAL_TIM_OC_ConfigChannel) refers to stm32f1xx_hal_tim.o(i.TIM_OC1_SetConfig) for TIM_OC1_SetConfig
    stm32f1xx_hal_tim.o(i.HAL_TIM_OC_ConfigChannel) refers to stm32f1xx_hal_tim.o(i.TIM_OC2_SetConfig) for TIM_OC2_SetConfig
    stm32f1xx_hal_tim.o(i.HAL_TIM_OC_ConfigChannel) refers to stm32f1xx_hal_tim.o(i.TIM_OC3_SetConfig) for TIM_OC3_SetConfig
    stm32f1xx_hal_tim.o(i.HAL_TIM_OC_ConfigChannel) refers to stm32f1xx_hal_tim.o(i.TIM_OC4_SetConfig) for TIM_OC4_SetConfig
    stm32f1xx_hal_tim.o(i.HAL_TIM_OC_DeInit) refers to stm32f1xx_hal_tim.o(i.HAL_TIM_OC_MspDeInit) for HAL_TIM_OC_MspDeInit
    stm32f1xx_hal_tim.o(i.HAL_TIM_OC_Init) refers to stm32f1xx_hal_tim.o(i.HAL_TIM_OC_MspInit) for HAL_TIM_OC_MspInit
    stm32f1xx_hal_tim.o(i.HAL_TIM_OC_Init) refers to stm32f1xx_hal_tim.o(i.TIM_Base_SetConfig) for TIM_Base_SetConfig
    stm32f1xx_hal_tim.o(i.HAL_TIM_OC_Start) refers to stm32f1xx_hal_tim.o(i.TIM_CCxChannelCmd) for TIM_CCxChannelCmd
    stm32f1xx_hal_tim.o(i.HAL_TIM_OC_Start_DMA) refers to stm32f1xx_hal_dma.o(i.HAL_DMA_Start_IT) for HAL_DMA_Start_IT
    stm32f1xx_hal_tim.o(i.HAL_TIM_OC_Start_DMA) refers to stm32f1xx_hal_tim.o(i.TIM_CCxChannelCmd) for TIM_CCxChannelCmd
    stm32f1xx_hal_tim.o(i.HAL_TIM_OC_Start_DMA) refers to stm32f1xx_hal_tim.o(i.TIM_DMADelayPulseCplt) for TIM_DMADelayPulseCplt
    stm32f1xx_hal_tim.o(i.HAL_TIM_OC_Start_DMA) refers to stm32f1xx_hal_tim.o(i.TIM_DMADelayPulseHalfCplt) for TIM_DMADelayPulseHalfCplt
    stm32f1xx_hal_tim.o(i.HAL_TIM_OC_Start_DMA) refers to stm32f1xx_hal_tim.o(i.TIM_DMAError) for TIM_DMAError
    stm32f1xx_hal_tim.o(i.HAL_TIM_OC_Start_IT) refers to stm32f1xx_hal_tim.o(i.TIM_CCxChannelCmd) for TIM_CCxChannelCmd
    stm32f1xx_hal_tim.o(i.HAL_TIM_OC_Stop) refers to stm32f1xx_hal_tim.o(i.TIM_CCxChannelCmd) for TIM_CCxChannelCmd
    stm32f1xx_hal_tim.o(i.HAL_TIM_OC_Stop_DMA) refers to stm32f1xx_hal_dma.o(i.HAL_DMA_Abort_IT) for HAL_DMA_Abort_IT
    stm32f1xx_hal_tim.o(i.HAL_TIM_OC_Stop_DMA) refers to stm32f1xx_hal_tim.o(i.TIM_CCxChannelCmd) for TIM_CCxChannelCmd
    stm32f1xx_hal_tim.o(i.HAL_TIM_OC_Stop_IT) refers to stm32f1xx_hal_tim.o(i.TIM_CCxChannelCmd) for TIM_CCxChannelCmd
    stm32f1xx_hal_tim.o(i.HAL_TIM_OnePulse_ConfigChannel) refers to stm32f1xx_hal_tim.o(i.TIM_OC1_SetConfig) for TIM_OC1_SetConfig
    stm32f1xx_hal_tim.o(i.HAL_TIM_OnePulse_ConfigChannel) refers to stm32f1xx_hal_tim.o(i.TIM_OC2_SetConfig) for TIM_OC2_SetConfig
    stm32f1xx_hal_tim.o(i.HAL_TIM_OnePulse_ConfigChannel) refers to stm32f1xx_hal_tim.o(i.TIM_TI1_SetConfig) for TIM_TI1_SetConfig
    stm32f1xx_hal_tim.o(i.HAL_TIM_OnePulse_ConfigChannel) refers to stm32f1xx_hal_tim.o(i.TIM_TI2_SetConfig) for TIM_TI2_SetConfig
    stm32f1xx_hal_tim.o(i.HAL_TIM_OnePulse_DeInit) refers to stm32f1xx_hal_tim.o(i.HAL_TIM_OnePulse_MspDeInit) for HAL_TIM_OnePulse_MspDeInit
    stm32f1xx_hal_tim.o(i.HAL_TIM_OnePulse_Init) refers to stm32f1xx_hal_tim.o(i.HAL_TIM_OnePulse_MspInit) for HAL_TIM_OnePulse_MspInit
    stm32f1xx_hal_tim.o(i.HAL_TIM_OnePulse_Init) refers to stm32f1xx_hal_tim.o(i.TIM_Base_SetConfig) for TIM_Base_SetConfig
    stm32f1xx_hal_tim.o(i.HAL_TIM_OnePulse_Start) refers to stm32f1xx_hal_tim.o(i.TIM_CCxChannelCmd) for TIM_CCxChannelCmd
    stm32f1xx_hal_tim.o(i.HAL_TIM_OnePulse_Start_IT) refers to stm32f1xx_hal_tim.o(i.TIM_CCxChannelCmd) for TIM_CCxChannelCmd
    stm32f1xx_hal_tim.o(i.HAL_TIM_OnePulse_Stop) refers to stm32f1xx_hal_tim.o(i.TIM_CCxChannelCmd) for TIM_CCxChannelCmd
    stm32f1xx_hal_tim.o(i.HAL_TIM_OnePulse_Stop_IT) refers to stm32f1xx_hal_tim.o(i.TIM_CCxChannelCmd) for TIM_CCxChannelCmd
    stm32f1xx_hal_tim.o(i.HAL_TIM_PWM_ConfigChannel) refers to stm32f1xx_hal_tim.o(i.TIM_OC1_SetConfig) for TIM_OC1_SetConfig
    stm32f1xx_hal_tim.o(i.HAL_TIM_PWM_ConfigChannel) refers to stm32f1xx_hal_tim.o(i.TIM_OC2_SetConfig) for TIM_OC2_SetConfig
    stm32f1xx_hal_tim.o(i.HAL_TIM_PWM_ConfigChannel) refers to stm32f1xx_hal_tim.o(i.TIM_OC3_SetConfig) for TIM_OC3_SetConfig
    stm32f1xx_hal_tim.o(i.HAL_TIM_PWM_ConfigChannel) refers to stm32f1xx_hal_tim.o(i.TIM_OC4_SetConfig) for TIM_OC4_SetConfig
    stm32f1xx_hal_tim.o(i.HAL_TIM_PWM_DeInit) refers to stm32f1xx_hal_tim.o(i.HAL_TIM_PWM_MspDeInit) for HAL_TIM_PWM_MspDeInit
    stm32f1xx_hal_tim.o(i.HAL_TIM_PWM_Init) refers to stm32f1xx_hal_tim.o(i.HAL_TIM_PWM_MspInit) for HAL_TIM_PWM_MspInit
    stm32f1xx_hal_tim.o(i.HAL_TIM_PWM_Init) refers to stm32f1xx_hal_tim.o(i.TIM_Base_SetConfig) for TIM_Base_SetConfig
    stm32f1xx_hal_tim.o(i.HAL_TIM_PWM_Start) refers to stm32f1xx_hal_tim.o(i.TIM_CCxChannelCmd) for TIM_CCxChannelCmd
    stm32f1xx_hal_tim.o(i.HAL_TIM_PWM_Start_DMA) refers to stm32f1xx_hal_dma.o(i.HAL_DMA_Start_IT) for HAL_DMA_Start_IT
    stm32f1xx_hal_tim.o(i.HAL_TIM_PWM_Start_DMA) refers to stm32f1xx_hal_tim.o(i.TIM_CCxChannelCmd) for TIM_CCxChannelCmd
    stm32f1xx_hal_tim.o(i.HAL_TIM_PWM_Start_DMA) refers to stm32f1xx_hal_tim.o(i.TIM_DMADelayPulseCplt) for TIM_DMADelayPulseCplt
    stm32f1xx_hal_tim.o(i.HAL_TIM_PWM_Start_DMA) refers to stm32f1xx_hal_tim.o(i.TIM_DMADelayPulseHalfCplt) for TIM_DMADelayPulseHalfCplt
    stm32f1xx_hal_tim.o(i.HAL_TIM_PWM_Start_DMA) refers to stm32f1xx_hal_tim.o(i.TIM_DMAError) for TIM_DMAError
    stm32f1xx_hal_tim.o(i.HAL_TIM_PWM_Start_IT) refers to stm32f1xx_hal_tim.o(i.TIM_CCxChannelCmd) for TIM_CCxChannelCmd
    stm32f1xx_hal_tim.o(i.HAL_TIM_PWM_Stop) refers to stm32f1xx_hal_tim.o(i.TIM_CCxChannelCmd) for TIM_CCxChannelCmd
    stm32f1xx_hal_tim.o(i.HAL_TIM_PWM_Stop_DMA) refers to stm32f1xx_hal_dma.o(i.HAL_DMA_Abort_IT) for HAL_DMA_Abort_IT
    stm32f1xx_hal_tim.o(i.HAL_TIM_PWM_Stop_DMA) refers to stm32f1xx_hal_tim.o(i.TIM_CCxChannelCmd) for TIM_CCxChannelCmd
    stm32f1xx_hal_tim.o(i.HAL_TIM_PWM_Stop_IT) refers to stm32f1xx_hal_tim.o(i.TIM_CCxChannelCmd) for TIM_CCxChannelCmd
    stm32f1xx_hal_tim.o(i.HAL_TIM_SlaveConfigSynchro) refers to stm32f1xx_hal_tim.o(i.TIM_SlaveTimer_SetConfig) for TIM_SlaveTimer_SetConfig
    stm32f1xx_hal_tim.o(i.HAL_TIM_SlaveConfigSynchro_IT) refers to stm32f1xx_hal_tim.o(i.TIM_SlaveTimer_SetConfig) for TIM_SlaveTimer_SetConfig
    stm32f1xx_hal_tim.o(i.TIM_DMACaptureCplt) refers to stm32f1xx_hal_tim.o(i.HAL_TIM_IC_CaptureCallback) for HAL_TIM_IC_CaptureCallback
    stm32f1xx_hal_tim.o(i.TIM_DMACaptureHalfCplt) refers to stm32f1xx_hal_tim.o(i.HAL_TIM_IC_CaptureHalfCpltCallback) for HAL_TIM_IC_CaptureHalfCpltCallback
    stm32f1xx_hal_tim.o(i.TIM_DMADelayPulseCplt) refers to stm32f1xx_hal_tim.o(i.HAL_TIM_PWM_PulseFinishedCallback) for HAL_TIM_PWM_PulseFinishedCallback
    stm32f1xx_hal_tim.o(i.TIM_DMADelayPulseHalfCplt) refers to stm32f1xx_hal_tim.o(i.HAL_TIM_PWM_PulseFinishedHalfCpltCallback) for HAL_TIM_PWM_PulseFinishedHalfCpltCallback
    stm32f1xx_hal_tim.o(i.TIM_DMAError) refers to stm32f1xx_hal_tim.o(i.HAL_TIM_ErrorCallback) for HAL_TIM_ErrorCallback
    stm32f1xx_hal_tim.o(i.TIM_DMAPeriodElapsedCplt) refers to tim_it.o(i.HAL_TIM_PeriodElapsedCallback) for HAL_TIM_PeriodElapsedCallback
    stm32f1xx_hal_tim.o(i.TIM_DMAPeriodElapsedHalfCplt) refers to stm32f1xx_hal_tim.o(i.HAL_TIM_PeriodElapsedHalfCpltCallback) for HAL_TIM_PeriodElapsedHalfCpltCallback
    stm32f1xx_hal_tim.o(i.TIM_DMATriggerCplt) refers to stm32f1xx_hal_tim.o(i.HAL_TIM_TriggerCallback) for HAL_TIM_TriggerCallback
    stm32f1xx_hal_tim.o(i.TIM_DMATriggerHalfCplt) refers to stm32f1xx_hal_tim.o(i.HAL_TIM_TriggerHalfCpltCallback) for HAL_TIM_TriggerHalfCpltCallback
    stm32f1xx_hal_tim.o(i.TIM_SlaveTimer_SetConfig) refers to stm32f1xx_hal_tim.o(i.TIM_ETR_SetConfig) for TIM_ETR_SetConfig
    stm32f1xx_hal_tim.o(i.TIM_SlaveTimer_SetConfig) refers to stm32f1xx_hal_tim.o(i.TIM_TI1_ConfigInputStage) for TIM_TI1_ConfigInputStage
    stm32f1xx_hal_tim.o(i.TIM_SlaveTimer_SetConfig) refers to stm32f1xx_hal_tim.o(i.TIM_TI2_ConfigInputStage) for TIM_TI2_ConfigInputStage
    stm32f1xx_hal_tim_ex.o(i.HAL_TIMEx_ConfigCommutEvent_DMA) refers to stm32f1xx_hal_tim_ex.o(i.TIMEx_DMACommutationCplt) for TIMEx_DMACommutationCplt
    stm32f1xx_hal_tim_ex.o(i.HAL_TIMEx_ConfigCommutEvent_DMA) refers to stm32f1xx_hal_tim_ex.o(i.TIMEx_DMACommutationHalfCplt) for TIMEx_DMACommutationHalfCplt
    stm32f1xx_hal_tim_ex.o(i.HAL_TIMEx_ConfigCommutEvent_DMA) refers to stm32f1xx_hal_tim.o(i.TIM_DMAError) for TIM_DMAError
    stm32f1xx_hal_tim_ex.o(i.HAL_TIMEx_HallSensor_DeInit) refers to stm32f1xx_hal_tim_ex.o(i.HAL_TIMEx_HallSensor_MspDeInit) for HAL_TIMEx_HallSensor_MspDeInit
    stm32f1xx_hal_tim_ex.o(i.HAL_TIMEx_HallSensor_Init) refers to stm32f1xx_hal_tim_ex.o(i.HAL_TIMEx_HallSensor_MspInit) for HAL_TIMEx_HallSensor_MspInit
    stm32f1xx_hal_tim_ex.o(i.HAL_TIMEx_HallSensor_Init) refers to stm32f1xx_hal_tim.o(i.TIM_Base_SetConfig) for TIM_Base_SetConfig
    stm32f1xx_hal_tim_ex.o(i.HAL_TIMEx_HallSensor_Init) refers to stm32f1xx_hal_tim.o(i.TIM_TI1_SetConfig) for TIM_TI1_SetConfig
    stm32f1xx_hal_tim_ex.o(i.HAL_TIMEx_HallSensor_Init) refers to stm32f1xx_hal_tim.o(i.TIM_OC2_SetConfig) for TIM_OC2_SetConfig
    stm32f1xx_hal_tim_ex.o(i.HAL_TIMEx_HallSensor_Start) refers to stm32f1xx_hal_tim.o(i.TIM_CCxChannelCmd) for TIM_CCxChannelCmd
    stm32f1xx_hal_tim_ex.o(i.HAL_TIMEx_HallSensor_Start_DMA) refers to stm32f1xx_hal_tim.o(i.TIM_CCxChannelCmd) for TIM_CCxChannelCmd
    stm32f1xx_hal_tim_ex.o(i.HAL_TIMEx_HallSensor_Start_DMA) refers to stm32f1xx_hal_dma.o(i.HAL_DMA_Start_IT) for HAL_DMA_Start_IT
    stm32f1xx_hal_tim_ex.o(i.HAL_TIMEx_HallSensor_Start_DMA) refers to stm32f1xx_hal_tim.o(i.TIM_DMACaptureCplt) for TIM_DMACaptureCplt
    stm32f1xx_hal_tim_ex.o(i.HAL_TIMEx_HallSensor_Start_DMA) refers to stm32f1xx_hal_tim.o(i.TIM_DMACaptureHalfCplt) for TIM_DMACaptureHalfCplt
    stm32f1xx_hal_tim_ex.o(i.HAL_TIMEx_HallSensor_Start_DMA) refers to stm32f1xx_hal_tim.o(i.TIM_DMAError) for TIM_DMAError
    stm32f1xx_hal_tim_ex.o(i.HAL_TIMEx_HallSensor_Start_IT) refers to stm32f1xx_hal_tim.o(i.TIM_CCxChannelCmd) for TIM_CCxChannelCmd
    stm32f1xx_hal_tim_ex.o(i.HAL_TIMEx_HallSensor_Stop) refers to stm32f1xx_hal_tim.o(i.TIM_CCxChannelCmd) for TIM_CCxChannelCmd
    stm32f1xx_hal_tim_ex.o(i.HAL_TIMEx_HallSensor_Stop_DMA) refers to stm32f1xx_hal_tim.o(i.TIM_CCxChannelCmd) for TIM_CCxChannelCmd
    stm32f1xx_hal_tim_ex.o(i.HAL_TIMEx_HallSensor_Stop_DMA) refers to stm32f1xx_hal_dma.o(i.HAL_DMA_Abort_IT) for HAL_DMA_Abort_IT
    stm32f1xx_hal_tim_ex.o(i.HAL_TIMEx_HallSensor_Stop_IT) refers to stm32f1xx_hal_tim.o(i.TIM_CCxChannelCmd) for TIM_CCxChannelCmd
    stm32f1xx_hal_tim_ex.o(i.HAL_TIMEx_OCN_Start) refers to stm32f1xx_hal_tim_ex.o(i.TIM_CCxNChannelCmd) for TIM_CCxNChannelCmd
    stm32f1xx_hal_tim_ex.o(i.HAL_TIMEx_OCN_Start_DMA) refers to stm32f1xx_hal_dma.o(i.HAL_DMA_Start_IT) for HAL_DMA_Start_IT
    stm32f1xx_hal_tim_ex.o(i.HAL_TIMEx_OCN_Start_DMA) refers to stm32f1xx_hal_tim_ex.o(i.TIM_CCxNChannelCmd) for TIM_CCxNChannelCmd
    stm32f1xx_hal_tim_ex.o(i.HAL_TIMEx_OCN_Start_DMA) refers to stm32f1xx_hal_tim_ex.o(i.TIM_DMADelayPulseNCplt) for TIM_DMADelayPulseNCplt
    stm32f1xx_hal_tim_ex.o(i.HAL_TIMEx_OCN_Start_DMA) refers to stm32f1xx_hal_tim.o(i.TIM_DMADelayPulseHalfCplt) for TIM_DMADelayPulseHalfCplt
    stm32f1xx_hal_tim_ex.o(i.HAL_TIMEx_OCN_Start_DMA) refers to stm32f1xx_hal_tim_ex.o(i.TIM_DMAErrorCCxN) for TIM_DMAErrorCCxN
    stm32f1xx_hal_tim_ex.o(i.HAL_TIMEx_OCN_Start_IT) refers to stm32f1xx_hal_tim_ex.o(i.TIM_CCxNChannelCmd) for TIM_CCxNChannelCmd
    stm32f1xx_hal_tim_ex.o(i.HAL_TIMEx_OCN_Stop) refers to stm32f1xx_hal_tim_ex.o(i.TIM_CCxNChannelCmd) for TIM_CCxNChannelCmd
    stm32f1xx_hal_tim_ex.o(i.HAL_TIMEx_OCN_Stop_DMA) refers to stm32f1xx_hal_dma.o(i.HAL_DMA_Abort_IT) for HAL_DMA_Abort_IT
    stm32f1xx_hal_tim_ex.o(i.HAL_TIMEx_OCN_Stop_DMA) refers to stm32f1xx_hal_tim_ex.o(i.TIM_CCxNChannelCmd) for TIM_CCxNChannelCmd
    stm32f1xx_hal_tim_ex.o(i.HAL_TIMEx_OCN_Stop_IT) refers to stm32f1xx_hal_tim_ex.o(i.TIM_CCxNChannelCmd) for TIM_CCxNChannelCmd
    stm32f1xx_hal_tim_ex.o(i.HAL_TIMEx_OnePulseN_Start) refers to stm32f1xx_hal_tim_ex.o(i.TIM_CCxNChannelCmd) for TIM_CCxNChannelCmd
    stm32f1xx_hal_tim_ex.o(i.HAL_TIMEx_OnePulseN_Start) refers to stm32f1xx_hal_tim.o(i.TIM_CCxChannelCmd) for TIM_CCxChannelCmd
    stm32f1xx_hal_tim_ex.o(i.HAL_TIMEx_OnePulseN_Start_IT) refers to stm32f1xx_hal_tim_ex.o(i.TIM_CCxNChannelCmd) for TIM_CCxNChannelCmd
    stm32f1xx_hal_tim_ex.o(i.HAL_TIMEx_OnePulseN_Start_IT) refers to stm32f1xx_hal_tim.o(i.TIM_CCxChannelCmd) for TIM_CCxChannelCmd
    stm32f1xx_hal_tim_ex.o(i.HAL_TIMEx_OnePulseN_Stop) refers to stm32f1xx_hal_tim_ex.o(i.TIM_CCxNChannelCmd) for TIM_CCxNChannelCmd
    stm32f1xx_hal_tim_ex.o(i.HAL_TIMEx_OnePulseN_Stop) refers to stm32f1xx_hal_tim.o(i.TIM_CCxChannelCmd) for TIM_CCxChannelCmd
    stm32f1xx_hal_tim_ex.o(i.HAL_TIMEx_OnePulseN_Stop_IT) refers to stm32f1xx_hal_tim_ex.o(i.TIM_CCxNChannelCmd) for TIM_CCxNChannelCmd
    stm32f1xx_hal_tim_ex.o(i.HAL_TIMEx_OnePulseN_Stop_IT) refers to stm32f1xx_hal_tim.o(i.TIM_CCxChannelCmd) for TIM_CCxChannelCmd
    stm32f1xx_hal_tim_ex.o(i.HAL_TIMEx_PWMN_Start) refers to stm32f1xx_hal_tim_ex.o(i.TIM_CCxNChannelCmd) for TIM_CCxNChannelCmd
    stm32f1xx_hal_tim_ex.o(i.HAL_TIMEx_PWMN_Start_DMA) refers to stm32f1xx_hal_dma.o(i.HAL_DMA_Start_IT) for HAL_DMA_Start_IT
    stm32f1xx_hal_tim_ex.o(i.HAL_TIMEx_PWMN_Start_DMA) refers to stm32f1xx_hal_tim_ex.o(i.TIM_CCxNChannelCmd) for TIM_CCxNChannelCmd
    stm32f1xx_hal_tim_ex.o(i.HAL_TIMEx_PWMN_Start_DMA) refers to stm32f1xx_hal_tim_ex.o(i.TIM_DMADelayPulseNCplt) for TIM_DMADelayPulseNCplt
    stm32f1xx_hal_tim_ex.o(i.HAL_TIMEx_PWMN_Start_DMA) refers to stm32f1xx_hal_tim.o(i.TIM_DMADelayPulseHalfCplt) for TIM_DMADelayPulseHalfCplt
    stm32f1xx_hal_tim_ex.o(i.HAL_TIMEx_PWMN_Start_DMA) refers to stm32f1xx_hal_tim_ex.o(i.TIM_DMAErrorCCxN) for TIM_DMAErrorCCxN
    stm32f1xx_hal_tim_ex.o(i.HAL_TIMEx_PWMN_Start_IT) refers to stm32f1xx_hal_tim_ex.o(i.TIM_CCxNChannelCmd) for TIM_CCxNChannelCmd
    stm32f1xx_hal_tim_ex.o(i.HAL_TIMEx_PWMN_Stop) refers to stm32f1xx_hal_tim_ex.o(i.TIM_CCxNChannelCmd) for TIM_CCxNChannelCmd
    stm32f1xx_hal_tim_ex.o(i.HAL_TIMEx_PWMN_Stop_DMA) refers to stm32f1xx_hal_dma.o(i.HAL_DMA_Abort_IT) for HAL_DMA_Abort_IT
    stm32f1xx_hal_tim_ex.o(i.HAL_TIMEx_PWMN_Stop_DMA) refers to stm32f1xx_hal_tim_ex.o(i.TIM_CCxNChannelCmd) for TIM_CCxNChannelCmd
    stm32f1xx_hal_tim_ex.o(i.HAL_TIMEx_PWMN_Stop_IT) refers to stm32f1xx_hal_tim_ex.o(i.TIM_CCxNChannelCmd) for TIM_CCxNChannelCmd
    stm32f1xx_hal_tim_ex.o(i.TIMEx_DMACommutationCplt) refers to stm32f1xx_hal_tim_ex.o(i.HAL_TIMEx_CommutCallback) for HAL_TIMEx_CommutCallback
    stm32f1xx_hal_tim_ex.o(i.TIMEx_DMACommutationHalfCplt) refers to stm32f1xx_hal_tim_ex.o(i.HAL_TIMEx_CommutHalfCpltCallback) for HAL_TIMEx_CommutHalfCpltCallback
    stm32f1xx_hal_tim_ex.o(i.TIM_DMADelayPulseNCplt) refers to stm32f1xx_hal_tim.o(i.HAL_TIM_PWM_PulseFinishedCallback) for HAL_TIM_PWM_PulseFinishedCallback
    stm32f1xx_hal_tim_ex.o(i.TIM_DMAErrorCCxN) refers to stm32f1xx_hal_tim.o(i.HAL_TIM_ErrorCallback) for HAL_TIM_ErrorCallback
    stm32f1xx_hal.o(i.HAL_DeInit) refers to stm32f1xx_hal.o(i.HAL_MspDeInit) for HAL_MspDeInit
    stm32f1xx_hal.o(i.HAL_Delay) refers to stm32f1xx_hal.o(i.HAL_GetTick) for HAL_GetTick
    stm32f1xx_hal.o(i.HAL_Delay) refers to stm32f1xx_hal.o(.data) for .data
    stm32f1xx_hal.o(i.HAL_GetTick) refers to stm32f1xx_hal.o(.data) for .data
    stm32f1xx_hal.o(i.HAL_GetTickFreq) refers to stm32f1xx_hal.o(.data) for .data
    stm32f1xx_hal.o(i.HAL_GetTickPrio) refers to stm32f1xx_hal.o(.data) for .data
    stm32f1xx_hal.o(i.HAL_IncTick) refers to stm32f1xx_hal.o(.data) for .data
    stm32f1xx_hal.o(i.HAL_Init) refers to stm32f1xx_hal_cortex.o(i.HAL_NVIC_SetPriorityGrouping) for HAL_NVIC_SetPriorityGrouping
    stm32f1xx_hal.o(i.HAL_Init) refers to stm32f1xx_hal.o(i.HAL_InitTick) for HAL_InitTick
    stm32f1xx_hal.o(i.HAL_Init) refers to stm32f1xx_hal_msp.o(i.HAL_MspInit) for HAL_MspInit
    stm32f1xx_hal.o(i.HAL_InitTick) refers to stm32f1xx_hal_cortex.o(i.HAL_SYSTICK_Config) for HAL_SYSTICK_Config
    stm32f1xx_hal.o(i.HAL_InitTick) refers to stm32f1xx_hal_cortex.o(i.HAL_NVIC_SetPriority) for HAL_NVIC_SetPriority
    stm32f1xx_hal.o(i.HAL_InitTick) refers to stm32f1xx_hal.o(.data) for .data
    stm32f1xx_hal.o(i.HAL_InitTick) refers to system_stm32f1xx.o(.data) for SystemCoreClock
    stm32f1xx_hal.o(i.HAL_SetTickFreq) refers to stm32f1xx_hal.o(i.HAL_InitTick) for HAL_InitTick
    stm32f1xx_hal.o(i.HAL_SetTickFreq) refers to stm32f1xx_hal.o(.data) for .data
    stm32f1xx_hal_rcc.o(i.HAL_RCC_ClockConfig) refers to stm32f1xx_hal.o(i.HAL_GetTick) for HAL_GetTick
    stm32f1xx_hal_rcc.o(i.HAL_RCC_ClockConfig) refers to stm32f1xx_hal_rcc.o(i.HAL_RCC_GetSysClockFreq) for HAL_RCC_GetSysClockFreq
    stm32f1xx_hal_rcc.o(i.HAL_RCC_ClockConfig) refers to stm32f1xx_hal.o(i.HAL_InitTick) for HAL_InitTick
    stm32f1xx_hal_rcc.o(i.HAL_RCC_ClockConfig) refers to system_stm32f1xx.o(.constdata) for AHBPrescTable
    stm32f1xx_hal_rcc.o(i.HAL_RCC_ClockConfig) refers to system_stm32f1xx.o(.data) for SystemCoreClock
    stm32f1xx_hal_rcc.o(i.HAL_RCC_ClockConfig) refers to stm32f1xx_hal.o(.data) for uwTickPrio
    stm32f1xx_hal_rcc.o(i.HAL_RCC_DeInit) refers to stm32f1xx_hal.o(i.HAL_GetTick) for HAL_GetTick
    stm32f1xx_hal_rcc.o(i.HAL_RCC_DeInit) refers to stm32f1xx_hal.o(i.HAL_InitTick) for HAL_InitTick
    stm32f1xx_hal_rcc.o(i.HAL_RCC_DeInit) refers to system_stm32f1xx.o(.data) for SystemCoreClock
    stm32f1xx_hal_rcc.o(i.HAL_RCC_DeInit) refers to stm32f1xx_hal.o(.data) for uwTickPrio
    stm32f1xx_hal_rcc.o(i.HAL_RCC_GetHCLKFreq) refers to system_stm32f1xx.o(.data) for SystemCoreClock
    stm32f1xx_hal_rcc.o(i.HAL_RCC_GetPCLK1Freq) refers to stm32f1xx_hal_rcc.o(i.HAL_RCC_GetHCLKFreq) for HAL_RCC_GetHCLKFreq
    stm32f1xx_hal_rcc.o(i.HAL_RCC_GetPCLK1Freq) refers to system_stm32f1xx.o(.constdata) for APBPrescTable
    stm32f1xx_hal_rcc.o(i.HAL_RCC_GetPCLK2Freq) refers to stm32f1xx_hal_rcc.o(i.HAL_RCC_GetHCLKFreq) for HAL_RCC_GetHCLKFreq
    stm32f1xx_hal_rcc.o(i.HAL_RCC_GetPCLK2Freq) refers to system_stm32f1xx.o(.constdata) for APBPrescTable
    stm32f1xx_hal_rcc.o(i.HAL_RCC_MCOConfig) refers to stm32f1xx_hal_gpio.o(i.HAL_GPIO_Init) for HAL_GPIO_Init
    stm32f1xx_hal_rcc.o(i.HAL_RCC_NMI_IRQHandler) refers to stm32f1xx_hal_rcc.o(i.HAL_RCC_CSSCallback) for HAL_RCC_CSSCallback
    stm32f1xx_hal_rcc.o(i.HAL_RCC_OscConfig) refers to stm32f1xx_hal.o(i.HAL_GetTick) for HAL_GetTick
    stm32f1xx_hal_rcc.o(i.HAL_RCC_OscConfig) refers to stm32f1xx_hal_rcc.o(i.RCC_Delay) for RCC_Delay
    stm32f1xx_hal_rcc.o(i.RCC_Delay) refers to system_stm32f1xx.o(.data) for SystemCoreClock
    stm32f1xx_hal_rcc_ex.o(i.HAL_RCCEx_GetPeriphCLKFreq) refers to stm32f1xx_hal_rcc.o(i.HAL_RCC_GetPCLK2Freq) for HAL_RCC_GetPCLK2Freq
    stm32f1xx_hal_rcc_ex.o(i.HAL_RCCEx_GetPeriphCLKFreq) refers to stm32f1xx_hal_rcc.o(i.HAL_RCC_GetSysClockFreq) for HAL_RCC_GetSysClockFreq
    stm32f1xx_hal_rcc_ex.o(i.HAL_RCCEx_PeriphCLKConfig) refers to stm32f1xx_hal.o(i.HAL_GetTick) for HAL_GetTick
    stm32f1xx_hal_gpio.o(i.HAL_GPIO_EXTI_IRQHandler) refers to stm32f1xx_hal_gpio.o(i.HAL_GPIO_EXTI_Callback) for HAL_GPIO_EXTI_Callback
    stm32f1xx_hal_dma.o(i.HAL_DMA_PollForTransfer) refers to stm32f1xx_hal.o(i.HAL_GetTick) for HAL_GetTick
    stm32f1xx_hal_dma.o(i.HAL_DMA_Start) refers to stm32f1xx_hal_dma.o(i.DMA_SetConfig) for DMA_SetConfig
    stm32f1xx_hal_dma.o(i.HAL_DMA_Start_IT) refers to stm32f1xx_hal_dma.o(i.DMA_SetConfig) for DMA_SetConfig
    stm32f1xx_hal_cortex.o(i.HAL_NVIC_SetPriority) refers to stm32f1xx_hal_cortex.o(i.__NVIC_SetPriority) for __NVIC_SetPriority
    stm32f1xx_hal_cortex.o(i.HAL_SYSTICK_Config) refers to stm32f1xx_hal_cortex.o(i.__NVIC_SetPriority) for __NVIC_SetPriority
    stm32f1xx_hal_cortex.o(i.HAL_SYSTICK_IRQHandler) refers to stm32f1xx_hal_cortex.o(i.HAL_SYSTICK_Callback) for HAL_SYSTICK_Callback
    stm32f1xx_hal_pwr.o(i.HAL_PWR_EnterSTOPMode) refers to stm32f1xx_hal_pwr.o(i.PWR_OverloadWfe) for PWR_OverloadWfe
    stm32f1xx_hal_pwr.o(i.HAL_PWR_PVD_IRQHandler) refers to stm32f1xx_hal_pwr.o(i.HAL_PWR_PVDCallback) for HAL_PWR_PVDCallback
    stm32f1xx_hal_flash.o(i.FLASH_Program_HalfWord) refers to stm32f1xx_hal_flash.o(.bss) for .bss
    stm32f1xx_hal_flash.o(i.FLASH_SetErrorCode) refers to stm32f1xx_hal_flash.o(.bss) for .bss
    stm32f1xx_hal_flash.o(i.FLASH_WaitForLastOperation) refers to stm32f1xx_hal.o(i.HAL_GetTick) for HAL_GetTick
    stm32f1xx_hal_flash.o(i.FLASH_WaitForLastOperation) refers to stm32f1xx_hal_flash.o(i.FLASH_SetErrorCode) for FLASH_SetErrorCode
    stm32f1xx_hal_flash.o(i.HAL_FLASH_GetError) refers to stm32f1xx_hal_flash.o(.bss) for .bss
    stm32f1xx_hal_flash.o(i.HAL_FLASH_IRQHandler) refers to stm32f1xx_hal_flash.o(i.FLASH_SetErrorCode) for FLASH_SetErrorCode
    stm32f1xx_hal_flash.o(i.HAL_FLASH_IRQHandler) refers to stm32f1xx_hal_flash.o(i.HAL_FLASH_OperationErrorCallback) for HAL_FLASH_OperationErrorCallback
    stm32f1xx_hal_flash.o(i.HAL_FLASH_IRQHandler) refers to stm32f1xx_hal_flash.o(i.FLASH_Program_HalfWord) for FLASH_Program_HalfWord
    stm32f1xx_hal_flash.o(i.HAL_FLASH_IRQHandler) refers to stm32f1xx_hal_flash.o(i.HAL_FLASH_EndOfOperationCallback) for HAL_FLASH_EndOfOperationCallback
    stm32f1xx_hal_flash.o(i.HAL_FLASH_IRQHandler) refers to stm32f1xx_hal_flash_ex.o(i.FLASH_PageErase) for FLASH_PageErase
    stm32f1xx_hal_flash.o(i.HAL_FLASH_IRQHandler) refers to stm32f1xx_hal_flash.o(.bss) for .bss
    stm32f1xx_hal_flash.o(i.HAL_FLASH_OB_Launch) refers to stm32f1xx_hal_cortex.o(i.HAL_NVIC_SystemReset) for HAL_NVIC_SystemReset
    stm32f1xx_hal_flash.o(i.HAL_FLASH_Program) refers to stm32f1xx_hal_flash.o(i.FLASH_WaitForLastOperation) for FLASH_WaitForLastOperation
    stm32f1xx_hal_flash.o(i.HAL_FLASH_Program) refers to llushr.o(.text) for __aeabi_llsr
    stm32f1xx_hal_flash.o(i.HAL_FLASH_Program) refers to stm32f1xx_hal_flash.o(i.FLASH_Program_HalfWord) for FLASH_Program_HalfWord
    stm32f1xx_hal_flash.o(i.HAL_FLASH_Program) refers to stm32f1xx_hal_flash.o(.bss) for .bss
    stm32f1xx_hal_flash.o(i.HAL_FLASH_Program_IT) refers to stm32f1xx_hal_flash.o(i.FLASH_Program_HalfWord) for FLASH_Program_HalfWord
    stm32f1xx_hal_flash.o(i.HAL_FLASH_Program_IT) refers to stm32f1xx_hal_flash.o(.bss) for .bss
    stm32f1xx_hal_flash_ex.o(i.FLASH_MassErase) refers to stm32f1xx_hal_flash.o(.bss) for pFlash
    stm32f1xx_hal_flash_ex.o(i.FLASH_OB_DisableWRP) refers to stm32f1xx_hal_flash_ex.o(i.FLASH_OB_GetWRP) for FLASH_OB_GetWRP
    stm32f1xx_hal_flash_ex.o(i.FLASH_OB_DisableWRP) refers to stm32f1xx_hal_flash.o(i.FLASH_WaitForLastOperation) for FLASH_WaitForLastOperation
    stm32f1xx_hal_flash_ex.o(i.FLASH_OB_DisableWRP) refers to stm32f1xx_hal_flash_ex.o(i.HAL_FLASHEx_OBErase) for HAL_FLASHEx_OBErase
    stm32f1xx_hal_flash_ex.o(i.FLASH_OB_DisableWRP) refers to stm32f1xx_hal_flash.o(.bss) for pFlash
    stm32f1xx_hal_flash_ex.o(i.FLASH_OB_EnableWRP) refers to stm32f1xx_hal_flash_ex.o(i.FLASH_OB_GetWRP) for FLASH_OB_GetWRP
    stm32f1xx_hal_flash_ex.o(i.FLASH_OB_EnableWRP) refers to stm32f1xx_hal_flash.o(i.FLASH_WaitForLastOperation) for FLASH_WaitForLastOperation
    stm32f1xx_hal_flash_ex.o(i.FLASH_OB_EnableWRP) refers to stm32f1xx_hal_flash_ex.o(i.HAL_FLASHEx_OBErase) for HAL_FLASHEx_OBErase
    stm32f1xx_hal_flash_ex.o(i.FLASH_OB_EnableWRP) refers to stm32f1xx_hal_flash.o(.bss) for pFlash
    stm32f1xx_hal_flash_ex.o(i.FLASH_OB_ProgramData) refers to stm32f1xx_hal_flash.o(i.FLASH_WaitForLastOperation) for FLASH_WaitForLastOperation
    stm32f1xx_hal_flash_ex.o(i.FLASH_OB_ProgramData) refers to stm32f1xx_hal_flash.o(.bss) for pFlash
    stm32f1xx_hal_flash_ex.o(i.FLASH_OB_RDP_LevelConfig) refers to stm32f1xx_hal_flash.o(i.FLASH_WaitForLastOperation) for FLASH_WaitForLastOperation
    stm32f1xx_hal_flash_ex.o(i.FLASH_OB_RDP_LevelConfig) refers to stm32f1xx_hal_flash.o(.bss) for pFlash
    stm32f1xx_hal_flash_ex.o(i.FLASH_OB_UserConfig) refers to stm32f1xx_hal_flash.o(i.FLASH_WaitForLastOperation) for FLASH_WaitForLastOperation
    stm32f1xx_hal_flash_ex.o(i.FLASH_OB_UserConfig) refers to stm32f1xx_hal_flash.o(.bss) for pFlash
    stm32f1xx_hal_flash_ex.o(i.FLASH_PageErase) refers to stm32f1xx_hal_flash.o(.bss) for pFlash
    stm32f1xx_hal_flash_ex.o(i.HAL_FLASHEx_Erase) refers to stm32f1xx_hal_flash.o(i.FLASH_WaitForLastOperation) for FLASH_WaitForLastOperation
    stm32f1xx_hal_flash_ex.o(i.HAL_FLASHEx_Erase) refers to stm32f1xx_hal_flash_ex.o(i.FLASH_MassErase) for FLASH_MassErase
    stm32f1xx_hal_flash_ex.o(i.HAL_FLASHEx_Erase) refers to stm32f1xx_hal_flash_ex.o(i.FLASH_PageErase) for FLASH_PageErase
    stm32f1xx_hal_flash_ex.o(i.HAL_FLASHEx_Erase) refers to stm32f1xx_hal_flash.o(.bss) for pFlash
    stm32f1xx_hal_flash_ex.o(i.HAL_FLASHEx_Erase_IT) refers to stm32f1xx_hal_flash_ex.o(i.FLASH_PageErase) for FLASH_PageErase
    stm32f1xx_hal_flash_ex.o(i.HAL_FLASHEx_Erase_IT) refers to stm32f1xx_hal_flash_ex.o(i.FLASH_MassErase) for FLASH_MassErase
    stm32f1xx_hal_flash_ex.o(i.HAL_FLASHEx_Erase_IT) refers to stm32f1xx_hal_flash.o(.bss) for pFlash
    stm32f1xx_hal_flash_ex.o(i.HAL_FLASHEx_OBErase) refers to stm32f1xx_hal_flash_ex.o(i.FLASH_OB_GetRDP) for FLASH_OB_GetRDP
    stm32f1xx_hal_flash_ex.o(i.HAL_FLASHEx_OBErase) refers to stm32f1xx_hal_flash.o(i.FLASH_WaitForLastOperation) for FLASH_WaitForLastOperation
    stm32f1xx_hal_flash_ex.o(i.HAL_FLASHEx_OBErase) refers to stm32f1xx_hal_flash_ex.o(i.FLASH_OB_RDP_LevelConfig) for FLASH_OB_RDP_LevelConfig
    stm32f1xx_hal_flash_ex.o(i.HAL_FLASHEx_OBErase) refers to stm32f1xx_hal_flash.o(.bss) for pFlash
    stm32f1xx_hal_flash_ex.o(i.HAL_FLASHEx_OBGetConfig) refers to stm32f1xx_hal_flash_ex.o(i.FLASH_OB_GetWRP) for FLASH_OB_GetWRP
    stm32f1xx_hal_flash_ex.o(i.HAL_FLASHEx_OBGetConfig) refers to stm32f1xx_hal_flash_ex.o(i.FLASH_OB_GetRDP) for FLASH_OB_GetRDP
    stm32f1xx_hal_flash_ex.o(i.HAL_FLASHEx_OBGetConfig) refers to stm32f1xx_hal_flash_ex.o(i.FLASH_OB_GetUser) for FLASH_OB_GetUser
    stm32f1xx_hal_flash_ex.o(i.HAL_FLASHEx_OBProgram) refers to stm32f1xx_hal_flash_ex.o(i.FLASH_OB_DisableWRP) for FLASH_OB_DisableWRP
    stm32f1xx_hal_flash_ex.o(i.HAL_FLASHEx_OBProgram) refers to stm32f1xx_hal_flash_ex.o(i.FLASH_OB_EnableWRP) for FLASH_OB_EnableWRP
    stm32f1xx_hal_flash_ex.o(i.HAL_FLASHEx_OBProgram) refers to stm32f1xx_hal_flash_ex.o(i.FLASH_OB_RDP_LevelConfig) for FLASH_OB_RDP_LevelConfig
    stm32f1xx_hal_flash_ex.o(i.HAL_FLASHEx_OBProgram) refers to stm32f1xx_hal_flash_ex.o(i.FLASH_OB_UserConfig) for FLASH_OB_UserConfig
    stm32f1xx_hal_flash_ex.o(i.HAL_FLASHEx_OBProgram) refers to stm32f1xx_hal_flash_ex.o(i.FLASH_OB_ProgramData) for FLASH_OB_ProgramData
    stm32f1xx_hal_flash_ex.o(i.HAL_FLASHEx_OBProgram) refers to stm32f1xx_hal_flash.o(.bss) for pFlash
    stm32f1xx_hal_uart.o(i.HAL_HalfDuplex_Init) refers to usart.o(i.HAL_UART_MspInit) for HAL_UART_MspInit
    stm32f1xx_hal_uart.o(i.HAL_HalfDuplex_Init) refers to stm32f1xx_hal_uart.o(i.UART_SetConfig) for UART_SetConfig
    stm32f1xx_hal_uart.o(i.HAL_LIN_Init) refers to usart.o(i.HAL_UART_MspInit) for HAL_UART_MspInit
    stm32f1xx_hal_uart.o(i.HAL_LIN_Init) refers to stm32f1xx_hal_uart.o(i.UART_SetConfig) for UART_SetConfig
    stm32f1xx_hal_uart.o(i.HAL_MultiProcessor_Init) refers to usart.o(i.HAL_UART_MspInit) for HAL_UART_MspInit
    stm32f1xx_hal_uart.o(i.HAL_MultiProcessor_Init) refers to stm32f1xx_hal_uart.o(i.UART_SetConfig) for UART_SetConfig
    stm32f1xx_hal_uart.o(i.HAL_UARTEx_ReceiveToIdle) refers to stm32f1xx_hal.o(i.HAL_GetTick) for HAL_GetTick
    stm32f1xx_hal_uart.o(i.HAL_UARTEx_ReceiveToIdle_DMA) refers to stm32f1xx_hal_uart.o(i.UART_Start_Receive_DMA) for UART_Start_Receive_DMA
    stm32f1xx_hal_uart.o(i.HAL_UARTEx_ReceiveToIdle_IT) refers to stm32f1xx_hal_uart.o(i.UART_Start_Receive_IT) for UART_Start_Receive_IT
    stm32f1xx_hal_uart.o(i.HAL_UART_Abort) refers to stm32f1xx_hal_dma.o(i.HAL_DMA_Abort) for HAL_DMA_Abort
    stm32f1xx_hal_uart.o(i.HAL_UART_Abort) refers to stm32f1xx_hal_dma.o(i.HAL_DMA_GetError) for HAL_DMA_GetError
    stm32f1xx_hal_uart.o(i.HAL_UART_AbortReceive) refers to stm32f1xx_hal_dma.o(i.HAL_DMA_Abort) for HAL_DMA_Abort
    stm32f1xx_hal_uart.o(i.HAL_UART_AbortReceive) refers to stm32f1xx_hal_dma.o(i.HAL_DMA_GetError) for HAL_DMA_GetError
    stm32f1xx_hal_uart.o(i.HAL_UART_AbortReceive_IT) refers to stm32f1xx_hal_dma.o(i.HAL_DMA_Abort_IT) for HAL_DMA_Abort_IT
    stm32f1xx_hal_uart.o(i.HAL_UART_AbortReceive_IT) refers to stm32f1xx_hal_uart.o(i.HAL_UART_AbortReceiveCpltCallback) for HAL_UART_AbortReceiveCpltCallback
    stm32f1xx_hal_uart.o(i.HAL_UART_AbortReceive_IT) refers to stm32f1xx_hal_uart.o(i.UART_DMARxOnlyAbortCallback) for UART_DMARxOnlyAbortCallback
    stm32f1xx_hal_uart.o(i.HAL_UART_AbortTransmit) refers to stm32f1xx_hal_dma.o(i.HAL_DMA_Abort) for HAL_DMA_Abort
    stm32f1xx_hal_uart.o(i.HAL_UART_AbortTransmit) refers to stm32f1xx_hal_dma.o(i.HAL_DMA_GetError) for HAL_DMA_GetError
    stm32f1xx_hal_uart.o(i.HAL_UART_AbortTransmit_IT) refers to stm32f1xx_hal_dma.o(i.HAL_DMA_Abort_IT) for HAL_DMA_Abort_IT
    stm32f1xx_hal_uart.o(i.HAL_UART_AbortTransmit_IT) refers to stm32f1xx_hal_uart.o(i.HAL_UART_AbortTransmitCpltCallback) for HAL_UART_AbortTransmitCpltCallback
    stm32f1xx_hal_uart.o(i.HAL_UART_AbortTransmit_IT) refers to stm32f1xx_hal_uart.o(i.UART_DMATxOnlyAbortCallback) for UART_DMATxOnlyAbortCallback
    stm32f1xx_hal_uart.o(i.HAL_UART_Abort_IT) refers to stm32f1xx_hal_dma.o(i.HAL_DMA_Abort_IT) for HAL_DMA_Abort_IT
    stm32f1xx_hal_uart.o(i.HAL_UART_Abort_IT) refers to stm32f1xx_hal_uart.o(i.HAL_UART_AbortCpltCallback) for HAL_UART_AbortCpltCallback
    stm32f1xx_hal_uart.o(i.HAL_UART_Abort_IT) refers to stm32f1xx_hal_uart.o(i.UART_DMATxAbortCallback) for UART_DMATxAbortCallback
    stm32f1xx_hal_uart.o(i.HAL_UART_Abort_IT) refers to stm32f1xx_hal_uart.o(i.UART_DMARxAbortCallback) for UART_DMARxAbortCallback
    stm32f1xx_hal_uart.o(i.HAL_UART_DMAStop) refers to stm32f1xx_hal_dma.o(i.HAL_DMA_Abort) for HAL_DMA_Abort
    stm32f1xx_hal_uart.o(i.HAL_UART_DMAStop) refers to stm32f1xx_hal_uart.o(i.UART_EndTxTransfer) for UART_EndTxTransfer
    stm32f1xx_hal_uart.o(i.HAL_UART_DMAStop) refers to stm32f1xx_hal_uart.o(i.UART_EndRxTransfer) for UART_EndRxTransfer
    stm32f1xx_hal_uart.o(i.HAL_UART_DeInit) refers to usart.o(i.HAL_UART_MspDeInit) for HAL_UART_MspDeInit
    stm32f1xx_hal_uart.o(i.HAL_UART_IRQHandler) refers to stm32f1xx_hal_uart.o(i.UART_Receive_IT) for UART_Receive_IT
    stm32f1xx_hal_uart.o(i.HAL_UART_IRQHandler) refers to stm32f1xx_hal_uart.o(i.UART_EndRxTransfer) for UART_EndRxTransfer
    stm32f1xx_hal_uart.o(i.HAL_UART_IRQHandler) refers to stm32f1xx_hal_dma.o(i.HAL_DMA_Abort_IT) for HAL_DMA_Abort_IT
    stm32f1xx_hal_uart.o(i.HAL_UART_IRQHandler) refers to stm32f1xx_hal_uart.o(i.HAL_UART_ErrorCallback) for HAL_UART_ErrorCallback
    stm32f1xx_hal_uart.o(i.HAL_UART_IRQHandler) refers to stm32f1xx_hal_dma.o(i.HAL_DMA_Abort) for HAL_DMA_Abort
    stm32f1xx_hal_uart.o(i.HAL_UART_IRQHandler) refers to stm32f1xx_hal_uart.o(i.HAL_UARTEx_RxEventCallback) for HAL_UARTEx_RxEventCallback
    stm32f1xx_hal_uart.o(i.HAL_UART_IRQHandler) refers to stm32f1xx_hal_uart.o(i.UART_Transmit_IT) for UART_Transmit_IT
    stm32f1xx_hal_uart.o(i.HAL_UART_IRQHandler) refers to stm32f1xx_hal_uart.o(i.UART_EndTransmit_IT) for UART_EndTransmit_IT
    stm32f1xx_hal_uart.o(i.HAL_UART_IRQHandler) refers to stm32f1xx_hal_uart.o(i.UART_DMAAbortOnError) for UART_DMAAbortOnError
    stm32f1xx_hal_uart.o(i.HAL_UART_Init) refers to usart.o(i.HAL_UART_MspInit) for HAL_UART_MspInit
    stm32f1xx_hal_uart.o(i.HAL_UART_Init) refers to stm32f1xx_hal_uart.o(i.UART_SetConfig) for UART_SetConfig
    stm32f1xx_hal_uart.o(i.HAL_UART_Receive) refers to stm32f1xx_hal.o(i.HAL_GetTick) for HAL_GetTick
    stm32f1xx_hal_uart.o(i.HAL_UART_Receive) refers to stm32f1xx_hal_uart.o(i.UART_WaitOnFlagUntilTimeout) for UART_WaitOnFlagUntilTimeout
    stm32f1xx_hal_uart.o(i.HAL_UART_Receive_DMA) refers to stm32f1xx_hal_uart.o(i.UART_Start_Receive_DMA) for UART_Start_Receive_DMA
    stm32f1xx_hal_uart.o(i.HAL_UART_Receive_IT) refers to stm32f1xx_hal_uart.o(i.UART_Start_Receive_IT) for UART_Start_Receive_IT
    stm32f1xx_hal_uart.o(i.HAL_UART_Transmit) refers to stm32f1xx_hal.o(i.HAL_GetTick) for HAL_GetTick
    stm32f1xx_hal_uart.o(i.HAL_UART_Transmit) refers to stm32f1xx_hal_uart.o(i.UART_WaitOnFlagUntilTimeout) for UART_WaitOnFlagUntilTimeout
    stm32f1xx_hal_uart.o(i.HAL_UART_Transmit_DMA) refers to stm32f1xx_hal_dma.o(i.HAL_DMA_Start_IT) for HAL_DMA_Start_IT
    stm32f1xx_hal_uart.o(i.HAL_UART_Transmit_DMA) refers to stm32f1xx_hal_uart.o(i.UART_DMATransmitCplt) for UART_DMATransmitCplt
    stm32f1xx_hal_uart.o(i.HAL_UART_Transmit_DMA) refers to stm32f1xx_hal_uart.o(i.UART_DMATxHalfCplt) for UART_DMATxHalfCplt
    stm32f1xx_hal_uart.o(i.HAL_UART_Transmit_DMA) refers to stm32f1xx_hal_uart.o(i.UART_DMAError) for UART_DMAError
    stm32f1xx_hal_uart.o(i.UART_DMAAbortOnError) refers to stm32f1xx_hal_uart.o(i.HAL_UART_ErrorCallback) for HAL_UART_ErrorCallback
    stm32f1xx_hal_uart.o(i.UART_DMAError) refers to stm32f1xx_hal_uart.o(i.UART_EndTxTransfer) for UART_EndTxTransfer
    stm32f1xx_hal_uart.o(i.UART_DMAError) refers to stm32f1xx_hal_uart.o(i.UART_EndRxTransfer) for UART_EndRxTransfer
    stm32f1xx_hal_uart.o(i.UART_DMAError) refers to stm32f1xx_hal_uart.o(i.HAL_UART_ErrorCallback) for HAL_UART_ErrorCallback
    stm32f1xx_hal_uart.o(i.UART_DMAReceiveCplt) refers to stm32f1xx_hal_uart.o(i.HAL_UART_RxCpltCallback) for HAL_UART_RxCpltCallback
    stm32f1xx_hal_uart.o(i.UART_DMAReceiveCplt) refers to stm32f1xx_hal_uart.o(i.HAL_UARTEx_RxEventCallback) for HAL_UARTEx_RxEventCallback
    stm32f1xx_hal_uart.o(i.UART_DMARxAbortCallback) refers to stm32f1xx_hal_uart.o(i.HAL_UART_AbortCpltCallback) for HAL_UART_AbortCpltCallback
    stm32f1xx_hal_uart.o(i.UART_DMARxHalfCplt) refers to stm32f1xx_hal_uart.o(i.HAL_UART_RxHalfCpltCallback) for HAL_UART_RxHalfCpltCallback
    stm32f1xx_hal_uart.o(i.UART_DMARxHalfCplt) refers to stm32f1xx_hal_uart.o(i.HAL_UARTEx_RxEventCallback) for HAL_UARTEx_RxEventCallback
    stm32f1xx_hal_uart.o(i.UART_DMARxOnlyAbortCallback) refers to stm32f1xx_hal_uart.o(i.HAL_UART_AbortReceiveCpltCallback) for HAL_UART_AbortReceiveCpltCallback
    stm32f1xx_hal_uart.o(i.UART_DMATransmitCplt) refers to stm32f1xx_hal_uart.o(i.HAL_UART_TxCpltCallback) for HAL_UART_TxCpltCallback
    stm32f1xx_hal_uart.o(i.UART_DMATxAbortCallback) refers to stm32f1xx_hal_uart.o(i.HAL_UART_AbortCpltCallback) for HAL_UART_AbortCpltCallback
    stm32f1xx_hal_uart.o(i.UART_DMATxHalfCplt) refers to stm32f1xx_hal_uart.o(i.HAL_UART_TxHalfCpltCallback) for HAL_UART_TxHalfCpltCallback
    stm32f1xx_hal_uart.o(i.UART_DMATxOnlyAbortCallback) refers to stm32f1xx_hal_uart.o(i.HAL_UART_AbortTransmitCpltCallback) for HAL_UART_AbortTransmitCpltCallback
    stm32f1xx_hal_uart.o(i.UART_EndTransmit_IT) refers to stm32f1xx_hal_uart.o(i.HAL_UART_TxCpltCallback) for HAL_UART_TxCpltCallback
    stm32f1xx_hal_uart.o(i.UART_Receive_IT) refers to stm32f1xx_hal_uart.o(i.HAL_UART_RxCpltCallback) for HAL_UART_RxCpltCallback
    stm32f1xx_hal_uart.o(i.UART_Receive_IT) refers to stm32f1xx_hal_uart.o(i.HAL_UARTEx_RxEventCallback) for HAL_UARTEx_RxEventCallback
    stm32f1xx_hal_uart.o(i.UART_SetConfig) refers to stm32f1xx_hal_rcc.o(i.HAL_RCC_GetPCLK2Freq) for HAL_RCC_GetPCLK2Freq
    stm32f1xx_hal_uart.o(i.UART_SetConfig) refers to stm32f1xx_hal_rcc.o(i.HAL_RCC_GetPCLK1Freq) for HAL_RCC_GetPCLK1Freq
    stm32f1xx_hal_uart.o(i.UART_Start_Receive_DMA) refers to stm32f1xx_hal_dma.o(i.HAL_DMA_Start_IT) for HAL_DMA_Start_IT
    stm32f1xx_hal_uart.o(i.UART_Start_Receive_DMA) refers to stm32f1xx_hal_uart.o(i.UART_DMAReceiveCplt) for UART_DMAReceiveCplt
    stm32f1xx_hal_uart.o(i.UART_Start_Receive_DMA) refers to stm32f1xx_hal_uart.o(i.UART_DMARxHalfCplt) for UART_DMARxHalfCplt
    stm32f1xx_hal_uart.o(i.UART_Start_Receive_DMA) refers to stm32f1xx_hal_uart.o(i.UART_DMAError) for UART_DMAError
    stm32f1xx_hal_uart.o(i.UART_WaitOnFlagUntilTimeout) refers to stm32f1xx_hal.o(i.HAL_GetTick) for HAL_GetTick
    floor.o(i.__softfp_floor) refers (Special) to iusefp.o(.text) for __I$use$fp
    floor.o(i.__softfp_floor) refers to floor.o(i.floor) for floor
    floor.o(i.floor) refers (Special) to iusefp.o(.text) for __I$use$fp
    floor.o(i.floor) refers to dadd.o(.text) for __aeabi_dadd
    floor.o(i.floor) refers to cdrcmple.o(.text) for __aeabi_cdrcmple
    sin.o(i.__softfp_sin) refers (Special) to iusefp.o(.text) for __I$use$fp
    sin.o(i.__softfp_sin) refers to sin.o(i.sin) for sin
    sin.o(i.sin) refers (Special) to iusefp.o(.text) for __I$use$fp
    sin.o(i.sin) refers to errno.o(i.__set_errno) for __set_errno
    sin.o(i.sin) refers to dunder.o(i.__mathlib_dbl_invalid) for __mathlib_dbl_invalid
    sin.o(i.sin) refers to dunder.o(i.__mathlib_dbl_infnan) for __mathlib_dbl_infnan
    sin.o(i.sin) refers to rred.o(i.__ieee754_rem_pio2) for __ieee754_rem_pio2
    sin.o(i.sin) refers to cos_i.o(i.__kernel_cos) for __kernel_cos
    sin.o(i.sin) refers to sin_i.o(i.__kernel_sin) for __kernel_sin
    sin_x.o(i.____softfp_sin$lsc) refers (Special) to iusefp.o(.text) for __I$use$fp
    sin_x.o(i.____softfp_sin$lsc) refers to sin_x.o(i.__sin$lsc) for __sin$lsc
    sin_x.o(i.__sin$lsc) refers (Special) to iusefp.o(.text) for __I$use$fp
    sin_x.o(i.__sin$lsc) refers to errno.o(i.__set_errno) for __set_errno
    sin_x.o(i.__sin$lsc) refers to dunder.o(i.__mathlib_dbl_infnan) for __mathlib_dbl_infnan
    sin_x.o(i.__sin$lsc) refers to rred.o(i.__ieee754_rem_pio2) for __ieee754_rem_pio2
    sin_x.o(i.__sin$lsc) refers to cos_i.o(i.__kernel_cos) for __kernel_cos
    sin_x.o(i.__sin$lsc) refers to sin_i.o(i.__kernel_sin) for __kernel_sin
    entry.o(.ARM.Collect$$$$00000000) refers (Special) to entry10a.o(.ARM.Collect$$$$0000000F) for __rt_final_cpp
    entry.o(.ARM.Collect$$$$00000000) refers (Special) to entry11a.o(.ARM.Collect$$$$00000011) for __rt_final_exit
    entry.o(.ARM.Collect$$$$00000000) refers (Special) to entry12b.o(.ARM.Collect$$$$0000000E) for __rt_lib_shutdown_fini
    entry.o(.ARM.Collect$$$$00000000) refers (Special) to entry7b.o(.ARM.Collect$$$$00000008) for _main_clock
    entry.o(.ARM.Collect$$$$00000000) refers (Special) to entry8b.o(.ARM.Collect$$$$0000000A) for _main_cpp_init
    entry.o(.ARM.Collect$$$$00000000) refers (Special) to entry9a.o(.ARM.Collect$$$$0000000B) for _main_init
    entry.o(.ARM.Collect$$$$00000000) refers (Special) to entry5.o(.ARM.Collect$$$$00000004) for _main_scatterload
    entry.o(.ARM.Collect$$$$00000000) refers (Special) to entry2.o(.ARM.Collect$$$$00000001) for _main_stk
    printfb.o(i.__0fprintf$bare) refers to printfb.o(i._printf_core) for _printf_core
    printfb.o(i.__0fprintf$bare) refers to usart.o(i.fputc) for fputc
    printfb.o(i.__0printf$bare) refers to printfb.o(i._printf_core) for _printf_core
    printfb.o(i.__0printf$bare) refers to usart.o(i.fputc) for fputc
    printfb.o(i.__0printf$bare) refers to usart.o(.data) for __stdout
    printfb.o(i.__0snprintf$bare) refers to printfb.o(i._printf_core) for _printf_core
    printfb.o(i.__0snprintf$bare) refers to printfb.o(i._snputc) for _snputc
    printfb.o(i.__0sprintf$bare) refers to printfb.o(i._printf_core) for _printf_core
    printfb.o(i.__0sprintf$bare) refers to printfb.o(i._sputc) for _sputc
    printfb.o(i.__0vfprintf$bare) refers to printfb.o(i._printf_core) for _printf_core
    printfb.o(i.__0vfprintf$bare) refers to usart.o(i.fputc) for fputc
    printfb.o(i.__0vprintf$bare) refers to printfb.o(i._printf_core) for _printf_core
    printfb.o(i.__0vprintf$bare) refers to usart.o(i.fputc) for fputc
    printfb.o(i.__0vprintf$bare) refers to usart.o(.data) for __stdout
    printfb.o(i.__0vsnprintf$bare) refers to printfb.o(i._printf_core) for _printf_core
    printfb.o(i.__0vsnprintf$bare) refers to printfb.o(i._snputc) for _snputc
    printfb.o(i.__0vsprintf$bare) refers to printfb.o(i._printf_core) for _printf_core
    printfb.o(i.__0vsprintf$bare) refers to printfb.o(i._sputc) for _sputc
    printf0.o(i.__0fprintf$0) refers to printf0.o(i._printf_core) for _printf_core
    printf0.o(i.__0fprintf$0) refers to usart.o(i.fputc) for fputc
    printf0.o(i.__0printf$0) refers to printf0.o(i._printf_core) for _printf_core
    printf0.o(i.__0printf$0) refers to usart.o(i.fputc) for fputc
    printf0.o(i.__0printf$0) refers to usart.o(.data) for __stdout
    printf0.o(i.__0snprintf$0) refers to printf0.o(i._printf_core) for _printf_core
    printf0.o(i.__0snprintf$0) refers to printf0.o(i._snputc) for _snputc
    printf0.o(i.__0sprintf$0) refers to printf0.o(i._printf_core) for _printf_core
    printf0.o(i.__0sprintf$0) refers to printf0.o(i._sputc) for _sputc
    printf0.o(i.__0vfprintf$0) refers to printf0.o(i._printf_core) for _printf_core
    printf0.o(i.__0vfprintf$0) refers to usart.o(i.fputc) for fputc
    printf0.o(i.__0vprintf$0) refers to printf0.o(i._printf_core) for _printf_core
    printf0.o(i.__0vprintf$0) refers to usart.o(i.fputc) for fputc
    printf0.o(i.__0vprintf$0) refers to usart.o(.data) for __stdout
    printf0.o(i.__0vsnprintf$0) refers to printf0.o(i._printf_core) for _printf_core
    printf0.o(i.__0vsnprintf$0) refers to printf0.o(i._snputc) for _snputc
    printf0.o(i.__0vsprintf$0) refers to printf0.o(i._printf_core) for _printf_core
    printf0.o(i.__0vsprintf$0) refers to printf0.o(i._sputc) for _sputc
    printf1.o(i.__0fprintf$1) refers to printf1.o(i._printf_core) for _printf_core
    printf1.o(i.__0fprintf$1) refers to usart.o(i.fputc) for fputc
    printf1.o(i.__0printf$1) refers to printf1.o(i._printf_core) for _printf_core
    printf1.o(i.__0printf$1) refers to usart.o(i.fputc) for fputc
    printf1.o(i.__0printf$1) refers to usart.o(.data) for __stdout
    printf1.o(i.__0snprintf$1) refers to printf1.o(i._printf_core) for _printf_core
    printf1.o(i.__0snprintf$1) refers to printf1.o(i._snputc) for _snputc
    printf1.o(i.__0sprintf$1) refers to printf1.o(i._printf_core) for _printf_core
    printf1.o(i.__0sprintf$1) refers to printf1.o(i._sputc) for _sputc
    printf1.o(i.__0vfprintf$1) refers to printf1.o(i._printf_core) for _printf_core
    printf1.o(i.__0vfprintf$1) refers to usart.o(i.fputc) for fputc
    printf1.o(i.__0vprintf$1) refers to printf1.o(i._printf_core) for _printf_core
    printf1.o(i.__0vprintf$1) refers to usart.o(i.fputc) for fputc
    printf1.o(i.__0vprintf$1) refers to usart.o(.data) for __stdout
    printf1.o(i.__0vsnprintf$1) refers to printf1.o(i._printf_core) for _printf_core
    printf1.o(i.__0vsnprintf$1) refers to printf1.o(i._snputc) for _snputc
    printf1.o(i.__0vsprintf$1) refers to printf1.o(i._printf_core) for _printf_core
    printf1.o(i.__0vsprintf$1) refers to printf1.o(i._sputc) for _sputc
    printf1.o(i._printf_core) refers to uidiv.o(.text) for __aeabi_uidivmod
    printf2.o(i.__0fprintf$2) refers to printf2.o(i._printf_core) for _printf_core
    printf2.o(i.__0fprintf$2) refers to usart.o(i.fputc) for fputc
    printf2.o(i.__0printf$2) refers to printf2.o(i._printf_core) for _printf_core
    printf2.o(i.__0printf$2) refers to usart.o(i.fputc) for fputc
    printf2.o(i.__0printf$2) refers to usart.o(.data) for __stdout
    printf2.o(i.__0snprintf$2) refers to printf2.o(i._printf_core) for _printf_core
    printf2.o(i.__0snprintf$2) refers to printf2.o(i._snputc) for _snputc
    printf2.o(i.__0sprintf$2) refers to printf2.o(i._printf_core) for _printf_core
    printf2.o(i.__0sprintf$2) refers to printf2.o(i._sputc) for _sputc
    printf2.o(i.__0vfprintf$2) refers to printf2.o(i._printf_core) for _printf_core
    printf2.o(i.__0vfprintf$2) refers to usart.o(i.fputc) for fputc
    printf2.o(i.__0vprintf$2) refers to printf2.o(i._printf_core) for _printf_core
    printf2.o(i.__0vprintf$2) refers to usart.o(i.fputc) for fputc
    printf2.o(i.__0vprintf$2) refers to usart.o(.data) for __stdout
    printf2.o(i.__0vsnprintf$2) refers to printf2.o(i._printf_core) for _printf_core
    printf2.o(i.__0vsnprintf$2) refers to printf2.o(i._snputc) for _snputc
    printf2.o(i.__0vsprintf$2) refers to printf2.o(i._printf_core) for _printf_core
    printf2.o(i.__0vsprintf$2) refers to printf2.o(i._sputc) for _sputc
    printf3.o(i.__0fprintf$3) refers to printf3.o(i._printf_core) for _printf_core
    printf3.o(i.__0fprintf$3) refers to usart.o(i.fputc) for fputc
    printf3.o(i.__0printf$3) refers to printf3.o(i._printf_core) for _printf_core
    printf3.o(i.__0printf$3) refers to usart.o(i.fputc) for fputc
    printf3.o(i.__0printf$3) refers to usart.o(.data) for __stdout
    printf3.o(i.__0snprintf$3) refers to printf3.o(i._printf_core) for _printf_core
    printf3.o(i.__0snprintf$3) refers to printf3.o(i._snputc) for _snputc
    printf3.o(i.__0sprintf$3) refers to printf3.o(i._printf_core) for _printf_core
    printf3.o(i.__0sprintf$3) refers to printf3.o(i._sputc) for _sputc
    printf3.o(i.__0vfprintf$3) refers to printf3.o(i._printf_core) for _printf_core
    printf3.o(i.__0vfprintf$3) refers to usart.o(i.fputc) for fputc
    printf3.o(i.__0vprintf$3) refers to printf3.o(i._printf_core) for _printf_core
    printf3.o(i.__0vprintf$3) refers to usart.o(i.fputc) for fputc
    printf3.o(i.__0vprintf$3) refers to usart.o(.data) for __stdout
    printf3.o(i.__0vsnprintf$3) refers to printf3.o(i._printf_core) for _printf_core
    printf3.o(i.__0vsnprintf$3) refers to printf3.o(i._snputc) for _snputc
    printf3.o(i.__0vsprintf$3) refers to printf3.o(i._printf_core) for _printf_core
    printf3.o(i.__0vsprintf$3) refers to printf3.o(i._sputc) for _sputc
    printf3.o(i._printf_core) refers to uidiv.o(.text) for __aeabi_uidivmod
    printf4.o(i.__0fprintf$4) refers to printf4.o(i._printf_core) for _printf_core
    printf4.o(i.__0fprintf$4) refers to usart.o(i.fputc) for fputc
    printf4.o(i.__0printf$4) refers to printf4.o(i._printf_core) for _printf_core
    printf4.o(i.__0printf$4) refers to usart.o(i.fputc) for fputc
    printf4.o(i.__0printf$4) refers to usart.o(.data) for __stdout
    printf4.o(i.__0snprintf$4) refers to printf4.o(i._printf_core) for _printf_core
    printf4.o(i.__0snprintf$4) refers to printf4.o(i._snputc) for _snputc
    printf4.o(i.__0sprintf$4) refers to printf4.o(i._printf_core) for _printf_core
    printf4.o(i.__0sprintf$4) refers to printf4.o(i._sputc) for _sputc
    printf4.o(i.__0vfprintf$4) refers to printf4.o(i._printf_core) for _printf_core
    printf4.o(i.__0vfprintf$4) refers to usart.o(i.fputc) for fputc
    printf4.o(i.__0vprintf$4) refers to printf4.o(i._printf_core) for _printf_core
    printf4.o(i.__0vprintf$4) refers to usart.o(i.fputc) for fputc
    printf4.o(i.__0vprintf$4) refers to usart.o(.data) for __stdout
    printf4.o(i.__0vsnprintf$4) refers to printf4.o(i._printf_core) for _printf_core
    printf4.o(i.__0vsnprintf$4) refers to printf4.o(i._snputc) for _snputc
    printf4.o(i.__0vsprintf$4) refers to printf4.o(i._printf_core) for _printf_core
    printf4.o(i.__0vsprintf$4) refers to printf4.o(i._sputc) for _sputc
    printf4.o(i._printf_core) refers to uldiv.o(.text) for __aeabi_uldivmod
    printf5.o(i.__0fprintf$5) refers to printf5.o(i._printf_core) for _printf_core
    printf5.o(i.__0fprintf$5) refers to usart.o(i.fputc) for fputc
    printf5.o(i.__0printf$5) refers to printf5.o(i._printf_core) for _printf_core
    printf5.o(i.__0printf$5) refers to usart.o(i.fputc) for fputc
    printf5.o(i.__0printf$5) refers to usart.o(.data) for __stdout
    printf5.o(i.__0snprintf$5) refers to printf5.o(i._printf_core) for _printf_core
    printf5.o(i.__0snprintf$5) refers to printf5.o(i._snputc) for _snputc
    printf5.o(i.__0sprintf$5) refers to printf5.o(i._printf_core) for _printf_core
    printf5.o(i.__0sprintf$5) refers to printf5.o(i._sputc) for _sputc
    printf5.o(i.__0vfprintf$5) refers to printf5.o(i._printf_core) for _printf_core
    printf5.o(i.__0vfprintf$5) refers to usart.o(i.fputc) for fputc
    printf5.o(i.__0vprintf$5) refers to printf5.o(i._printf_core) for _printf_core
    printf5.o(i.__0vprintf$5) refers to usart.o(i.fputc) for fputc
    printf5.o(i.__0vprintf$5) refers to usart.o(.data) for __stdout
    printf5.o(i.__0vsnprintf$5) refers to printf5.o(i._printf_core) for _printf_core
    printf5.o(i.__0vsnprintf$5) refers to printf5.o(i._snputc) for _snputc
    printf5.o(i.__0vsprintf$5) refers to printf5.o(i._printf_core) for _printf_core
    printf5.o(i.__0vsprintf$5) refers to printf5.o(i._sputc) for _sputc
    printf5.o(i._printf_core) refers to uldiv.o(.text) for __aeabi_uldivmod
    printf6.o(i.__0fprintf$6) refers to printf6.o(i._printf_core) for _printf_core
    printf6.o(i.__0fprintf$6) refers to usart.o(i.fputc) for fputc
    printf6.o(i.__0printf$6) refers to printf6.o(i._printf_core) for _printf_core
    printf6.o(i.__0printf$6) refers to usart.o(i.fputc) for fputc
    printf6.o(i.__0printf$6) refers to usart.o(.data) for __stdout
    printf6.o(i.__0snprintf$6) refers to printf6.o(i._printf_core) for _printf_core
    printf6.o(i.__0snprintf$6) refers to printf6.o(i._snputc) for _snputc
    printf6.o(i.__0sprintf$6) refers to printf6.o(i._printf_core) for _printf_core
    printf6.o(i.__0sprintf$6) refers to printf6.o(i._sputc) for _sputc
    printf6.o(i.__0vfprintf$6) refers to printf6.o(i._printf_core) for _printf_core
    printf6.o(i.__0vfprintf$6) refers to usart.o(i.fputc) for fputc
    printf6.o(i.__0vprintf$6) refers to printf6.o(i._printf_core) for _printf_core
    printf6.o(i.__0vprintf$6) refers to usart.o(i.fputc) for fputc
    printf6.o(i.__0vprintf$6) refers to usart.o(.data) for __stdout
    printf6.o(i.__0vsnprintf$6) refers to printf6.o(i._printf_core) for _printf_core
    printf6.o(i.__0vsnprintf$6) refers to printf6.o(i._snputc) for _snputc
    printf6.o(i.__0vsprintf$6) refers to printf6.o(i._printf_core) for _printf_core
    printf6.o(i.__0vsprintf$6) refers to printf6.o(i._sputc) for _sputc
    printf6.o(i._printf_core) refers to printf6.o(i._printf_pre_padding) for _printf_pre_padding
    printf6.o(i._printf_core) refers to uidiv.o(.text) for __aeabi_uidivmod
    printf6.o(i._printf_core) refers to printf6.o(i._printf_post_padding) for _printf_post_padding
    printf7.o(i.__0fprintf$7) refers to printf7.o(i._printf_core) for _printf_core
    printf7.o(i.__0fprintf$7) refers to usart.o(i.fputc) for fputc
    printf7.o(i.__0printf$7) refers to printf7.o(i._printf_core) for _printf_core
    printf7.o(i.__0printf$7) refers to usart.o(i.fputc) for fputc
    printf7.o(i.__0printf$7) refers to usart.o(.data) for __stdout
    printf7.o(i.__0snprintf$7) refers to printf7.o(i._printf_core) for _printf_core
    printf7.o(i.__0snprintf$7) refers to printf7.o(i._snputc) for _snputc
    printf7.o(i.__0sprintf$7) refers to printf7.o(i._printf_core) for _printf_core
    printf7.o(i.__0sprintf$7) refers to printf7.o(i._sputc) for _sputc
    printf7.o(i.__0vfprintf$7) refers to printf7.o(i._printf_core) for _printf_core
    printf7.o(i.__0vfprintf$7) refers to usart.o(i.fputc) for fputc
    printf7.o(i.__0vprintf$7) refers to printf7.o(i._printf_core) for _printf_core
    printf7.o(i.__0vprintf$7) refers to usart.o(i.fputc) for fputc
    printf7.o(i.__0vprintf$7) refers to usart.o(.data) for __stdout
    printf7.o(i.__0vsnprintf$7) refers to printf7.o(i._printf_core) for _printf_core
    printf7.o(i.__0vsnprintf$7) refers to printf7.o(i._snputc) for _snputc
    printf7.o(i.__0vsprintf$7) refers to printf7.o(i._printf_core) for _printf_core
    printf7.o(i.__0vsprintf$7) refers to printf7.o(i._sputc) for _sputc
    printf7.o(i._printf_core) refers to printf7.o(i._printf_pre_padding) for _printf_pre_padding
    printf7.o(i._printf_core) refers to uldiv.o(.text) for __aeabi_uldivmod
    printf7.o(i._printf_core) refers to printf7.o(i._printf_post_padding) for _printf_post_padding
    printf8.o(i.__0fprintf$8) refers to printf8.o(i._printf_core) for _printf_core
    printf8.o(i.__0fprintf$8) refers to usart.o(i.fputc) for fputc
    printf8.o(i.__0printf$8) refers to printf8.o(i._printf_core) for _printf_core
    printf8.o(i.__0printf$8) refers to usart.o(i.fputc) for fputc
    printf8.o(i.__0printf$8) refers to usart.o(.data) for __stdout
    printf8.o(i.__0snprintf$8) refers to printf8.o(i._printf_core) for _printf_core
    printf8.o(i.__0snprintf$8) refers to printf8.o(i._snputc) for _snputc
    printf8.o(i.__0sprintf$8) refers to printf8.o(i._printf_core) for _printf_core
    printf8.o(i.__0sprintf$8) refers to printf8.o(i._sputc) for _sputc
    printf8.o(i.__0vfprintf$8) refers to printf8.o(i._printf_core) for _printf_core
    printf8.o(i.__0vfprintf$8) refers to usart.o(i.fputc) for fputc
    printf8.o(i.__0vprintf$8) refers to printf8.o(i._printf_core) for _printf_core
    printf8.o(i.__0vprintf$8) refers to usart.o(i.fputc) for fputc
    printf8.o(i.__0vprintf$8) refers to usart.o(.data) for __stdout
    printf8.o(i.__0vsnprintf$8) refers to printf8.o(i._printf_core) for _printf_core
    printf8.o(i.__0vsnprintf$8) refers to printf8.o(i._snputc) for _snputc
    printf8.o(i.__0vsprintf$8) refers to printf8.o(i._printf_core) for _printf_core
    printf8.o(i.__0vsprintf$8) refers to printf8.o(i._sputc) for _sputc
    printf8.o(i._printf_core) refers to printf8.o(i._printf_pre_padding) for _printf_pre_padding
    printf8.o(i._printf_core) refers to uldiv.o(.text) for __aeabi_uldivmod
    printf8.o(i._printf_core) refers to printf8.o(i._printf_post_padding) for _printf_post_padding
    printfa.o(i.__0fprintf) refers (Special) to iusefp.o(.text) for __I$use$fp
    printfa.o(i.__0fprintf) refers to printfa.o(i._printf_core) for _printf_core
    printfa.o(i.__0fprintf) refers to usart.o(i.fputc) for fputc
    printfa.o(i.__0printf) refers (Special) to iusefp.o(.text) for __I$use$fp
    printfa.o(i.__0printf) refers to printfa.o(i._printf_core) for _printf_core
    printfa.o(i.__0printf) refers to usart.o(i.fputc) for fputc
    printfa.o(i.__0printf) refers to usart.o(.data) for __stdout
    printfa.o(i.__0snprintf) refers (Special) to iusefp.o(.text) for __I$use$fp
    printfa.o(i.__0snprintf) refers to printfa.o(i._printf_core) for _printf_core
    printfa.o(i.__0snprintf) refers to printfa.o(i._snputc) for _snputc
    printfa.o(i.__0sprintf) refers (Special) to iusefp.o(.text) for __I$use$fp
    printfa.o(i.__0sprintf) refers to printfa.o(i._printf_core) for _printf_core
    printfa.o(i.__0sprintf) refers to printfa.o(i._sputc) for _sputc
    printfa.o(i.__0vfprintf) refers (Special) to iusefp.o(.text) for __I$use$fp
    printfa.o(i.__0vfprintf) refers to printfa.o(i._printf_core) for _printf_core
    printfa.o(i.__0vfprintf) refers to usart.o(i.fputc) for fputc
    printfa.o(i.__0vprintf) refers (Special) to iusefp.o(.text) for __I$use$fp
    printfa.o(i.__0vprintf) refers to printfa.o(i._printf_core) for _printf_core
    printfa.o(i.__0vprintf) refers to usart.o(i.fputc) for fputc
    printfa.o(i.__0vprintf) refers to usart.o(.data) for __stdout
    printfa.o(i.__0vsnprintf) refers (Special) to iusefp.o(.text) for __I$use$fp
    printfa.o(i.__0vsnprintf) refers to printfa.o(i._printf_core) for _printf_core
    printfa.o(i.__0vsnprintf) refers to printfa.o(i._snputc) for _snputc
    printfa.o(i.__0vsprintf) refers (Special) to iusefp.o(.text) for __I$use$fp
    printfa.o(i.__0vsprintf) refers to printfa.o(i._printf_core) for _printf_core
    printfa.o(i.__0vsprintf) refers to printfa.o(i._sputc) for _sputc
    printfa.o(i._fp_digits) refers (Special) to iusefp.o(.text) for __I$use$fp
    printfa.o(i._fp_digits) refers to dmul.o(.text) for __aeabi_dmul
    printfa.o(i._fp_digits) refers to ddiv.o(.text) for __aeabi_ddiv
    printfa.o(i._fp_digits) refers to cdrcmple.o(.text) for __aeabi_cdrcmple
    printfa.o(i._fp_digits) refers to dadd.o(.text) for __aeabi_dadd
    printfa.o(i._fp_digits) refers to dfixul.o(.text) for __aeabi_d2ulz
    printfa.o(i._fp_digits) refers to uldiv.o(.text) for __aeabi_uldivmod
    printfa.o(i._printf_core) refers (Special) to iusefp.o(.text) for __I$use$fp
    printfa.o(i._printf_core) refers to printfa.o(i._printf_pre_padding) for _printf_pre_padding
    printfa.o(i._printf_core) refers to uldiv.o(.text) for __aeabi_uldivmod
    printfa.o(i._printf_core) refers to printfa.o(i._printf_post_padding) for _printf_post_padding
    printfa.o(i._printf_core) refers to printfa.o(i._fp_digits) for _fp_digits
    printfa.o(i._printf_core) refers to uidiv.o(.text) for __aeabi_uidivmod
    printfa.o(i._printf_post_padding) refers (Special) to iusefp.o(.text) for __I$use$fp
    printfa.o(i._printf_pre_padding) refers (Special) to iusefp.o(.text) for __I$use$fp
    printfa.o(i._snputc) refers (Special) to iusefp.o(.text) for __I$use$fp
    printfa.o(i._sputc) refers (Special) to iusefp.o(.text) for __I$use$fp
    fadd.o(.text) refers (Special) to iusefp.o(.text) for __I$use$fp
    fadd.o(.text) refers to fepilogue.o(.text) for _float_epilogue
    fmul.o(.text) refers (Special) to iusefp.o(.text) for __I$use$fp
    fdiv.o(.text) refers (Special) to iusefp.o(.text) for __I$use$fp
    fdiv.o(.text) refers to fepilogue.o(.text) for _float_round
    fscalb.o(.text) refers (Special) to iusefp.o(.text) for __I$use$fp
    dadd.o(.text) refers (Special) to iusefp.o(.text) for __I$use$fp
    dadd.o(.text) refers to llshl.o(.text) for __aeabi_llsl
    dadd.o(.text) refers to llsshr.o(.text) for __aeabi_lasr
    dadd.o(.text) refers to depilogue.o(.text) for _double_epilogue
    dmul.o(.text) refers (Special) to iusefp.o(.text) for __I$use$fp
    dmul.o(.text) refers to depilogue.o(.text) for _double_epilogue
    ddiv.o(.text) refers (Special) to iusefp.o(.text) for __I$use$fp
    ddiv.o(.text) refers to depilogue.o(.text) for _double_round
    dscalb.o(.text) refers (Special) to iusefp.o(.text) for __I$use$fp
    fflti.o(.text) refers (Special) to iusefp.o(.text) for __I$use$fp
    fflti.o(.text) refers to fepilogue.o(.text) for _float_epilogue
    ffltui.o(.text) refers (Special) to iusefp.o(.text) for __I$use$fp
    ffltui.o(.text) refers to fepilogue.o(.text) for _float_epilogue
    dflti.o(.text) refers (Special) to iusefp.o(.text) for __I$use$fp
    dflti.o(.text) refers to depilogue.o(.text) for _double_epilogue
    dfltui.o(.text) refers (Special) to iusefp.o(.text) for __I$use$fp
    dfltui.o(.text) refers to depilogue.o(.text) for _double_epilogue
    ffixi.o(.text) refers (Special) to iusefp.o(.text) for __I$use$fp
    dfixui.o(.text) refers (Special) to iusefp.o(.text) for __I$use$fp
    dfixui.o(.text) refers to llushr.o(.text) for __aeabi_llsr
    f2d.o(.text) refers (Special) to iusefp.o(.text) for __I$use$fp
    cdcmple.o(.text) refers (Special) to iusefp.o(.text) for __I$use$fp
    cdrcmple.o(.text) refers (Special) to iusefp.o(.text) for __I$use$fp
    d2f.o(.text) refers (Special) to iusefp.o(.text) for __I$use$fp
    d2f.o(.text) refers to fepilogue.o(.text) for _float_round
    cfcmple.o(.text) refers (Special) to iusefp.o(.text) for __I$use$fp
    cfrcmple.o(.text) refers (Special) to iusefp.o(.text) for __I$use$fp
    cos_i.o(i.__kernel_cos) refers (Special) to iusefp.o(.text) for __I$use$fp
    cos_i.o(i.__kernel_cos) refers to dfixi.o(.text) for __aeabi_d2iz
    cos_i.o(i.__kernel_cos) refers to dmul.o(.text) for __aeabi_dmul
    cos_i.o(i.__kernel_cos) refers to poly.o(i.__kernel_poly) for __kernel_poly
    cos_i.o(i.__kernel_cos) refers to dadd.o(.text) for __aeabi_dsub
    cos_i.o(i.__kernel_cos) refers to dscalb.o(.text) for __ARM_scalbn
    cos_i.o(i.__kernel_cos) refers to cos_i.o(.constdata) for .constdata
    cos_i.o(.constdata) refers (Special) to iusefp.o(.text) for __I$use$fp
    dunder.o(i.__mathlib_dbl_divzero) refers to ddiv.o(.text) for __aeabi_ddiv
    dunder.o(i.__mathlib_dbl_infnan) refers to dscalb.o(.text) for __ARM_scalbn
    dunder.o(i.__mathlib_dbl_infnan2) refers to dadd.o(.text) for __aeabi_dadd
    dunder.o(i.__mathlib_dbl_invalid) refers to ddiv.o(.text) for __aeabi_ddiv
    dunder.o(i.__mathlib_dbl_overflow) refers to dscalb.o(.text) for __ARM_scalbn
    dunder.o(i.__mathlib_dbl_posinfnan) refers to dmul.o(.text) for __aeabi_dmul
    dunder.o(i.__mathlib_dbl_underflow) refers to dscalb.o(.text) for __ARM_scalbn
    rred.o(i.__ieee754_rem_pio2) refers (Special) to iusefp.o(.text) for __I$use$fp
    rred.o(i.__ieee754_rem_pio2) refers to dadd.o(.text) for __aeabi_dsub
    rred.o(i.__ieee754_rem_pio2) refers to dmul.o(.text) for __aeabi_dmul
    rred.o(i.__ieee754_rem_pio2) refers to dfixi.o(.text) for __aeabi_d2iz
    rred.o(i.__ieee754_rem_pio2) refers to dflti.o(.text) for __aeabi_i2d
    rred.o(i.__ieee754_rem_pio2) refers to dfltui.o(.text) for __aeabi_ui2d
    rred.o(i.__ieee754_rem_pio2) refers to dscalb.o(.text) for __ARM_scalbn
    rred.o(i.__ieee754_rem_pio2) refers to rred.o(.constdata) for .constdata
    rred.o(i.__use_accurate_range_reduction) refers (Special) to iusefp.o(.text) for __I$use$fp
    rred.o(.constdata) refers (Special) to iusefp.o(.text) for __I$use$fp
    sin_i.o(i.__kernel_sin) refers (Special) to iusefp.o(.text) for __I$use$fp
    sin_i.o(i.__kernel_sin) refers to fpclassify.o(i.__ARM_fpclassify) for __ARM_fpclassify
    sin_i.o(i.__kernel_sin) refers to dunder.o(i.__mathlib_dbl_underflow) for __mathlib_dbl_underflow
    sin_i.o(i.__kernel_sin) refers to dmul.o(.text) for __aeabi_dmul
    sin_i.o(i.__kernel_sin) refers to poly.o(i.__kernel_poly) for __kernel_poly
    sin_i.o(i.__kernel_sin) refers to dscalb.o(.text) for __ARM_scalbn
    sin_i.o(i.__kernel_sin) refers to dadd.o(.text) for __aeabi_dsub
    sin_i.o(i.__kernel_sin) refers to sin_i.o(.constdata) for .constdata
    sin_i.o(.constdata) refers (Special) to iusefp.o(.text) for __I$use$fp
    sin_i_x.o(i.____kernel_sin$lsc) refers (Special) to iusefp.o(.text) for __I$use$fp
    sin_i_x.o(i.____kernel_sin$lsc) refers to dmul.o(.text) for __aeabi_dmul
    sin_i_x.o(i.____kernel_sin$lsc) refers to poly.o(i.__kernel_poly) for __kernel_poly
    sin_i_x.o(i.____kernel_sin$lsc) refers to dscalb.o(.text) for __ARM_scalbn
    sin_i_x.o(i.____kernel_sin$lsc) refers to dadd.o(.text) for __aeabi_dsub
    sin_i_x.o(i.____kernel_sin$lsc) refers to sin_i_x.o(.constdata) for .constdata
    sin_i_x.o(.constdata) refers (Special) to iusefp.o(.text) for __I$use$fp
    entry2.o(.ARM.Collect$$$$00000001) refers to entry2.o(.ARM.Collect$$$$00002712) for __lit__00000000
    entry2.o(.ARM.Collect$$$$00002712) refers to startup_stm32f103xe.o(STACK) for __initial_sp
    entry2.o(__vectab_stack_and_reset_area) refers to startup_stm32f103xe.o(STACK) for __initial_sp
    entry2.o(__vectab_stack_and_reset_area) refers to entry.o(.ARM.Collect$$$$00000000) for __main
    entry5.o(.ARM.Collect$$$$00000004) refers to init.o(.text) for __scatterload
    entry9a.o(.ARM.Collect$$$$0000000B) refers to main.o(i.main) for main
    entry9b.o(.ARM.Collect$$$$0000000C) refers to main.o(i.main) for main
    uldiv.o(.text) refers to llushr.o(.text) for __aeabi_llsr
    uldiv.o(.text) refers to llshl.o(.text) for __aeabi_llsl
    errno.o(i.__aeabi_errno_addr) refers to errno.o(.data) for .data
    errno.o(i.__read_errno) refers to errno.o(.data) for .data
    errno.o(i.__set_errno) refers to errno.o(.data) for .data
    depilogue.o(.text) refers to llshl.o(.text) for __aeabi_llsl
    depilogue.o(.text) refers to llushr.o(.text) for __aeabi_llsr
    dfixul.o(.text) refers to llushr.o(.text) for __aeabi_llsr
    dfixul.o(.text) refers to llshl.o(.text) for __aeabi_llsl
    fpclassify.o(i.__ARM_fpclassify) refers (Special) to iusefp.o(.text) for __I$use$fp
    poly.o(i.__kernel_poly) refers (Special) to iusefp.o(.text) for __I$use$fp
    poly.o(i.__kernel_poly) refers to dmul.o(.text) for __aeabi_dmul
    poly.o(i.__kernel_poly) refers to dadd.o(.text) for __aeabi_dadd
    init.o(.text) refers to entry5.o(.ARM.Collect$$$$00000004) for __main_after_scatterload
    dfixi.o(.text) refers to llushr.o(.text) for __aeabi_llsr


==============================================================================

Removing Unused input sections from the image.

    Removing startup_stm32f103xe.o(HEAP), (1024 bytes).
    Removing main.o(.rev16_text), (4 bytes).
    Removing main.o(.revsh_text), (4 bytes).
    Removing main.o(.rrx_text), (6 bytes).
    Removing gpio.o(.rev16_text), (4 bytes).
    Removing gpio.o(.revsh_text), (4 bytes).
    Removing gpio.o(.rrx_text), (6 bytes).
    Removing dma.o(.rev16_text), (4 bytes).
    Removing dma.o(.revsh_text), (4 bytes).
    Removing dma.o(.rrx_text), (6 bytes).
    Removing tim.o(.rev16_text), (4 bytes).
    Removing tim.o(.revsh_text), (4 bytes).
    Removing tim.o(.rrx_text), (6 bytes).
    Removing tim.o(i.HAL_TIM_Base_MspDeInit), (72 bytes).
    Removing tim.o(i.HAL_TIM_Encoder_MspDeInit), (144 bytes).
    Removing usart.o(.rev16_text), (4 bytes).
    Removing usart.o(.revsh_text), (4 bytes).
    Removing usart.o(.rrx_text), (6 bytes).
    Removing usart.o(i.HAL_UART_MspDeInit), (196 bytes).
    Removing usart.o(i._sys_exit), (2 bytes).
    Removing usart.o(i.fputc), (24 bytes).
    Removing usart.o(i.hw_console_output), (20 bytes).
    Removing usart.o(.data), (4 bytes).
    Removing stm32f1xx_it.o(.rev16_text), (4 bytes).
    Removing stm32f1xx_it.o(.revsh_text), (4 bytes).
    Removing stm32f1xx_it.o(.rrx_text), (6 bytes).
    Removing stm32f1xx_hal_msp.o(.rev16_text), (4 bytes).
    Removing stm32f1xx_hal_msp.o(.revsh_text), (4 bytes).
    Removing stm32f1xx_hal_msp.o(.rrx_text), (6 bytes).
    Removing system_stm32f1xx.o(.rev16_text), (4 bytes).
    Removing system_stm32f1xx.o(.revsh_text), (4 bytes).
    Removing system_stm32f1xx.o(.rrx_text), (6 bytes).
    Removing system_stm32f1xx.o(i.SystemCoreClockUpdate), (124 bytes).
    Removing bsp_buzzer.o(.rev16_text), (4 bytes).
    Removing bsp_buzzer.o(.revsh_text), (4 bytes).
    Removing bsp_buzzer.o(.rrx_text), (6 bytes).
    Removing bsp_led.o(.rev16_text), (4 bytes).
    Removing bsp_led.o(.revsh_text), (4 bytes).
    Removing bsp_led.o(.rrx_text), (6 bytes).
    Removing bsp_led.o(i.LED_off), (16 bytes).
    Removing bsp_led.o(i.usmart_led), (12 bytes).
    Removing bsp_servo_iic.o(.rev16_text), (4 bytes).
    Removing bsp_servo_iic.o(.revsh_text), (4 bytes).
    Removing bsp_servo_iic.o(.rrx_text), (6 bytes).
    Removing bsp_delay.o(.rev16_text), (4 bytes).
    Removing bsp_delay.o(.revsh_text), (4 bytes).
    Removing bsp_delay.o(.rrx_text), (6 bytes).
    Removing bsp_imu.o(.rev16_text), (4 bytes).
    Removing bsp_imu.o(.revsh_text), (4 bytes).
    Removing bsp_imu.o(.rrx_text), (6 bytes).
    Removing bsp_motor.o(.rev16_text), (4 bytes).
    Removing bsp_motor.o(.revsh_text), (4 bytes).
    Removing bsp_motor.o(.rrx_text), (6 bytes).
    Removing bsp_linefollower.o(.rev16_text), (4 bytes).
    Removing bsp_linefollower.o(.revsh_text), (4 bytes).
    Removing bsp_linefollower.o(.rrx_text), (6 bytes).
    Removing bsp_linefollower.o(i.show_line), (144 bytes).
    Removing bsp_qrscan.o(.rev16_text), (4 bytes).
    Removing bsp_qrscan.o(.revsh_text), (4 bytes).
    Removing bsp_qrscan.o(.rrx_text), (6 bytes).
    Removing openmv.o(.rev16_text), (4 bytes).
    Removing openmv.o(.revsh_text), (4 bytes).
    Removing openmv.o(.rrx_text), (6 bytes).
    Removing speed_ctrl.o(.rev16_text), (4 bytes).
    Removing speed_ctrl.o(.revsh_text), (4 bytes).
    Removing speed_ctrl.o(.rrx_text), (6 bytes).
    Removing turn.o(.rev16_text), (4 bytes).
    Removing turn.o(.revsh_text), (4 bytes).
    Removing turn.o(.rrx_text), (6 bytes).
    Removing map.o(.rev16_text), (4 bytes).
    Removing map.o(.revsh_text), (4 bytes).
    Removing map.o(.rrx_text), (6 bytes).
    Removing barrier.o(.rev16_text), (4 bytes).
    Removing barrier.o(.revsh_text), (4 bytes).
    Removing barrier.o(.rrx_text), (6 bytes).
    Removing barrier.o(i.Anti_Pshake), (56 bytes).
    Removing barrier.o(i.Anti_encoder), (32 bytes).
    Removing map_message.o(.rev16_text), (4 bytes).
    Removing map_message.o(.revsh_text), (4 bytes).
    Removing map_message.o(.rrx_text), (6 bytes).
    Removing scaner.o(.rev16_text), (4 bytes).
    Removing scaner.o(.revsh_text), (4 bytes).
    Removing scaner.o(.rrx_text), (6 bytes).
    Removing motion.o(.rev16_text), (4 bytes).
    Removing motion.o(.revsh_text), (4 bytes).
    Removing motion.o(.rrx_text), (6 bytes).
    Removing motion.o(i.Arrive), (18 bytes).
    Removing motion.o(i.Down_Body), (18 bytes).
    Removing motion.o(i.PreAction), (6 bytes).
    Removing motion.o(i.Stand), (18 bytes).
    Removing motion.o(i.Treasure), (18 bytes).
    Removing motion.o(i.myAction), (88 bytes).
    Removing motion.o(i.usmart_set_servo), (4 bytes).
    Removing pid.o(.rev16_text), (4 bytes).
    Removing pid.o(.revsh_text), (4 bytes).
    Removing pid.o(.rrx_text), (6 bytes).
    Removing pid.o(i.usmart_pid), (216 bytes).
    Removing sin_generate.o(.rev16_text), (4 bytes).
    Removing sin_generate.o(.revsh_text), (4 bytes).
    Removing sin_generate.o(.rrx_text), (6 bytes).
    Removing sin_generate.o(i.sin_generator), (100 bytes).
    Removing tim_it.o(.rev16_text), (4 bytes).
    Removing tim_it.o(.revsh_text), (4 bytes).
    Removing tim_it.o(.rrx_text), (6 bytes).
    Removing tim_it.o(.data), (16 bytes).
    Removing stm32f1xx_hal_gpio_ex.o(.rev16_text), (4 bytes).
    Removing stm32f1xx_hal_gpio_ex.o(.revsh_text), (4 bytes).
    Removing stm32f1xx_hal_gpio_ex.o(.rrx_text), (6 bytes).
    Removing stm32f1xx_hal_gpio_ex.o(i.HAL_GPIOEx_ConfigEventout), (20 bytes).
    Removing stm32f1xx_hal_gpio_ex.o(i.HAL_GPIOEx_DisableEventout), (16 bytes).
    Removing stm32f1xx_hal_gpio_ex.o(i.HAL_GPIOEx_EnableEventout), (16 bytes).
    Removing stm32f1xx_hal_tim.o(.rev16_text), (4 bytes).
    Removing stm32f1xx_hal_tim.o(.revsh_text), (4 bytes).
    Removing stm32f1xx_hal_tim.o(.rrx_text), (6 bytes).
    Removing stm32f1xx_hal_tim.o(i.HAL_TIM_Base_DeInit), (72 bytes).
    Removing stm32f1xx_hal_tim.o(i.HAL_TIM_Base_GetState), (6 bytes).
    Removing stm32f1xx_hal_tim.o(i.HAL_TIM_Base_MspDeInit), (2 bytes).
    Removing stm32f1xx_hal_tim.o(i.HAL_TIM_Base_MspInit), (2 bytes).
    Removing stm32f1xx_hal_tim.o(i.HAL_TIM_Base_Start), (108 bytes).
    Removing stm32f1xx_hal_tim.o(i.HAL_TIM_Base_Start_DMA), (192 bytes).
    Removing stm32f1xx_hal_tim.o(i.HAL_TIM_Base_Stop), (38 bytes).
    Removing stm32f1xx_hal_tim.o(i.HAL_TIM_Base_Stop_DMA), (58 bytes).
    Removing stm32f1xx_hal_tim.o(i.HAL_TIM_Base_Stop_IT), (48 bytes).
    Removing stm32f1xx_hal_tim.o(i.HAL_TIM_ConfigOCrefClear), (226 bytes).
    Removing stm32f1xx_hal_tim.o(i.HAL_TIM_ConfigTI1Input), (16 bytes).
    Removing stm32f1xx_hal_tim.o(i.HAL_TIM_DMABurstState), (6 bytes).
    Removing stm32f1xx_hal_tim.o(i.HAL_TIM_DMABurst_MultiReadStart), (424 bytes).
    Removing stm32f1xx_hal_tim.o(i.HAL_TIM_DMABurst_MultiWriteStart), (424 bytes).
    Removing stm32f1xx_hal_tim.o(i.HAL_TIM_DMABurst_ReadStart), (18 bytes).
    Removing stm32f1xx_hal_tim.o(i.HAL_TIM_DMABurst_ReadStop), (126 bytes).
    Removing stm32f1xx_hal_tim.o(i.HAL_TIM_DMABurst_WriteStart), (18 bytes).
    Removing stm32f1xx_hal_tim.o(i.HAL_TIM_DMABurst_WriteStop), (126 bytes).
    Removing stm32f1xx_hal_tim.o(i.HAL_TIM_Encoder_DeInit), (64 bytes).
    Removing stm32f1xx_hal_tim.o(i.HAL_TIM_Encoder_GetState), (6 bytes).
    Removing stm32f1xx_hal_tim.o(i.HAL_TIM_Encoder_MspDeInit), (2 bytes).
    Removing stm32f1xx_hal_tim.o(i.HAL_TIM_Encoder_MspInit), (2 bytes).
    Removing stm32f1xx_hal_tim.o(i.HAL_TIM_Encoder_Start_DMA), (500 bytes).
    Removing stm32f1xx_hal_tim.o(i.HAL_TIM_Encoder_Start_IT), (208 bytes).
    Removing stm32f1xx_hal_tim.o(i.HAL_TIM_Encoder_Stop), (170 bytes).
    Removing stm32f1xx_hal_tim.o(i.HAL_TIM_Encoder_Stop_DMA), (234 bytes).
    Removing stm32f1xx_hal_tim.o(i.HAL_TIM_Encoder_Stop_IT), (210 bytes).
    Removing stm32f1xx_hal_tim.o(i.HAL_TIM_ErrorCallback), (2 bytes).
    Removing stm32f1xx_hal_tim.o(i.HAL_TIM_GenerateEvent), (38 bytes).
    Removing stm32f1xx_hal_tim.o(i.HAL_TIM_GetActiveChannel), (4 bytes).
    Removing stm32f1xx_hal_tim.o(i.HAL_TIM_GetChannelState), (36 bytes).
    Removing stm32f1xx_hal_tim.o(i.HAL_TIM_IC_CaptureHalfCpltCallback), (2 bytes).
    Removing stm32f1xx_hal_tim.o(i.HAL_TIM_IC_ConfigChannel), (180 bytes).
    Removing stm32f1xx_hal_tim.o(i.HAL_TIM_IC_DeInit), (72 bytes).
    Removing stm32f1xx_hal_tim.o(i.HAL_TIM_IC_GetState), (6 bytes).
    Removing stm32f1xx_hal_tim.o(i.HAL_TIM_IC_Init), (74 bytes).
    Removing stm32f1xx_hal_tim.o(i.HAL_TIM_IC_MspDeInit), (2 bytes).
    Removing stm32f1xx_hal_tim.o(i.HAL_TIM_IC_MspInit), (2 bytes).
    Removing stm32f1xx_hal_tim.o(i.HAL_TIM_IC_Start), (252 bytes).
    Removing stm32f1xx_hal_tim.o(i.HAL_TIM_IC_Start_DMA), (488 bytes).
    Removing stm32f1xx_hal_tim.o(i.HAL_TIM_IC_Start_IT), (312 bytes).
    Removing stm32f1xx_hal_tim.o(i.HAL_TIM_IC_Stop), (114 bytes).
    Removing stm32f1xx_hal_tim.o(i.HAL_TIM_IC_Stop_DMA), (200 bytes).
    Removing stm32f1xx_hal_tim.o(i.HAL_TIM_IC_Stop_IT), (172 bytes).
    Removing stm32f1xx_hal_tim.o(i.HAL_TIM_OC_ConfigChannel), (76 bytes).
    Removing stm32f1xx_hal_tim.o(i.HAL_TIM_OC_DeInit), (72 bytes).
    Removing stm32f1xx_hal_tim.o(i.HAL_TIM_OC_GetState), (6 bytes).
    Removing stm32f1xx_hal_tim.o(i.HAL_TIM_OC_Init), (74 bytes).
    Removing stm32f1xx_hal_tim.o(i.HAL_TIM_OC_MspDeInit), (2 bytes).
    Removing stm32f1xx_hal_tim.o(i.HAL_TIM_OC_MspInit), (2 bytes).
    Removing stm32f1xx_hal_tim.o(i.HAL_TIM_OC_Start), (200 bytes).
    Removing stm32f1xx_hal_tim.o(i.HAL_TIM_OC_Start_DMA), (448 bytes).
    Removing stm32f1xx_hal_tim.o(i.HAL_TIM_OC_Start_IT), (260 bytes).
    Removing stm32f1xx_hal_tim.o(i.HAL_TIM_OC_Stop), (124 bytes).
    Removing stm32f1xx_hal_tim.o(i.HAL_TIM_OC_Stop_DMA), (208 bytes).
    Removing stm32f1xx_hal_tim.o(i.HAL_TIM_OC_Stop_IT), (184 bytes).
    Removing stm32f1xx_hal_tim.o(i.HAL_TIM_OnePulse_ConfigChannel), (234 bytes).
    Removing stm32f1xx_hal_tim.o(i.HAL_TIM_OnePulse_DeInit), (64 bytes).
    Removing stm32f1xx_hal_tim.o(i.HAL_TIM_OnePulse_GetState), (6 bytes).
    Removing stm32f1xx_hal_tim.o(i.HAL_TIM_OnePulse_Init), (90 bytes).
    Removing stm32f1xx_hal_tim.o(i.HAL_TIM_OnePulse_MspDeInit), (2 bytes).
    Removing stm32f1xx_hal_tim.o(i.HAL_TIM_OnePulse_MspInit), (2 bytes).
    Removing stm32f1xx_hal_tim.o(i.HAL_TIM_OnePulse_Start), (108 bytes).
    Removing stm32f1xx_hal_tim.o(i.HAL_TIM_OnePulse_Start_IT), (128 bytes).
    Removing stm32f1xx_hal_tim.o(i.HAL_TIM_OnePulse_Stop), (112 bytes).
    Removing stm32f1xx_hal_tim.o(i.HAL_TIM_OnePulse_Stop_IT), (132 bytes).
    Removing stm32f1xx_hal_tim.o(i.HAL_TIM_PWM_DeInit), (72 bytes).
    Removing stm32f1xx_hal_tim.o(i.HAL_TIM_PWM_GetState), (6 bytes).
    Removing stm32f1xx_hal_tim.o(i.HAL_TIM_PWM_MspDeInit), (2 bytes).
    Removing stm32f1xx_hal_tim.o(i.HAL_TIM_PWM_PulseFinishedHalfCpltCallback), (2 bytes).
    Removing stm32f1xx_hal_tim.o(i.HAL_TIM_PWM_Start_DMA), (448 bytes).
    Removing stm32f1xx_hal_tim.o(i.HAL_TIM_PWM_Start_IT), (260 bytes).
    Removing stm32f1xx_hal_tim.o(i.HAL_TIM_PWM_Stop), (124 bytes).
    Removing stm32f1xx_hal_tim.o(i.HAL_TIM_PWM_Stop_DMA), (208 bytes).
    Removing stm32f1xx_hal_tim.o(i.HAL_TIM_PWM_Stop_IT), (184 bytes).
    Removing stm32f1xx_hal_tim.o(i.HAL_TIM_PeriodElapsedCallback), (2 bytes).
    Removing stm32f1xx_hal_tim.o(i.HAL_TIM_PeriodElapsedHalfCpltCallback), (2 bytes).
    Removing stm32f1xx_hal_tim.o(i.HAL_TIM_ReadCapturedValue), (44 bytes).
    Removing stm32f1xx_hal_tim.o(i.HAL_TIM_SlaveConfigSynchro), (80 bytes).
    Removing stm32f1xx_hal_tim.o(i.HAL_TIM_SlaveConfigSynchro_IT), (80 bytes).
    Removing stm32f1xx_hal_tim.o(i.HAL_TIM_TriggerHalfCpltCallback), (2 bytes).
    Removing stm32f1xx_hal_tim.o(i.TIM_DMACaptureCplt), (110 bytes).
    Removing stm32f1xx_hal_tim.o(i.TIM_DMACaptureHalfCplt), (62 bytes).
    Removing stm32f1xx_hal_tim.o(i.TIM_DMADelayPulseCplt), (94 bytes).
    Removing stm32f1xx_hal_tim.o(i.TIM_DMADelayPulseHalfCplt), (62 bytes).
    Removing stm32f1xx_hal_tim.o(i.TIM_DMAError), (84 bytes).
    Removing stm32f1xx_hal_tim.o(i.TIM_DMAPeriodElapsedCplt), (24 bytes).
    Removing stm32f1xx_hal_tim.o(i.TIM_DMAPeriodElapsedHalfCplt), (10 bytes).
    Removing stm32f1xx_hal_tim.o(i.TIM_DMATriggerCplt), (24 bytes).
    Removing stm32f1xx_hal_tim.o(i.TIM_DMATriggerHalfCplt), (10 bytes).
    Removing stm32f1xx_hal_tim.o(i.TIM_SlaveTimer_SetConfig), (134 bytes).
    Removing stm32f1xx_hal_tim.o(i.TIM_TI1_SetConfig), (108 bytes).
    Removing stm32f1xx_hal_tim.o(i.TIM_TI2_SetConfig), (54 bytes).
    Removing stm32f1xx_hal_tim.o(i.TIM_TI3_SetConfig), (50 bytes).
    Removing stm32f1xx_hal_tim.o(i.TIM_TI4_SetConfig), (56 bytes).
    Removing stm32f1xx_hal_tim_ex.o(.rev16_text), (4 bytes).
    Removing stm32f1xx_hal_tim_ex.o(.revsh_text), (4 bytes).
    Removing stm32f1xx_hal_tim_ex.o(.rrx_text), (6 bytes).
    Removing stm32f1xx_hal_tim_ex.o(i.HAL_TIMEx_CommutHalfCpltCallback), (2 bytes).
    Removing stm32f1xx_hal_tim_ex.o(i.HAL_TIMEx_ConfigCommutEvent), (112 bytes).
    Removing stm32f1xx_hal_tim_ex.o(i.HAL_TIMEx_ConfigCommutEvent_DMA), (144 bytes).
    Removing stm32f1xx_hal_tim_ex.o(i.HAL_TIMEx_ConfigCommutEvent_IT), (112 bytes).
    Removing stm32f1xx_hal_tim_ex.o(i.HAL_TIMEx_GetChannelNState), (36 bytes).
    Removing stm32f1xx_hal_tim_ex.o(i.HAL_TIMEx_HallSensor_DeInit), (64 bytes).
    Removing stm32f1xx_hal_tim_ex.o(i.HAL_TIMEx_HallSensor_GetState), (6 bytes).
    Removing stm32f1xx_hal_tim_ex.o(i.HAL_TIMEx_HallSensor_Init), (210 bytes).
    Removing stm32f1xx_hal_tim_ex.o(i.HAL_TIMEx_HallSensor_MspDeInit), (2 bytes).
    Removing stm32f1xx_hal_tim_ex.o(i.HAL_TIMEx_HallSensor_MspInit), (2 bytes).
    Removing stm32f1xx_hal_tim_ex.o(i.HAL_TIMEx_HallSensor_Start), (152 bytes).
    Removing stm32f1xx_hal_tim_ex.o(i.HAL_TIMEx_HallSensor_Start_DMA), (220 bytes).
    Removing stm32f1xx_hal_tim_ex.o(i.HAL_TIMEx_HallSensor_Start_IT), (164 bytes).
    Removing stm32f1xx_hal_tim_ex.o(i.HAL_TIMEx_HallSensor_Stop), (58 bytes).
    Removing stm32f1xx_hal_tim_ex.o(i.HAL_TIMEx_HallSensor_Stop_DMA), (70 bytes).
    Removing stm32f1xx_hal_tim_ex.o(i.HAL_TIMEx_HallSensor_Stop_IT), (68 bytes).
    Removing stm32f1xx_hal_tim_ex.o(i.HAL_TIMEx_OCN_Start), (188 bytes).
    Removing stm32f1xx_hal_tim_ex.o(i.HAL_TIMEx_OCN_Start_DMA), (396 bytes).
    Removing stm32f1xx_hal_tim_ex.o(i.HAL_TIMEx_OCN_Start_IT), (244 bytes).
    Removing stm32f1xx_hal_tim_ex.o(i.HAL_TIMEx_OCN_Stop), (106 bytes).
    Removing stm32f1xx_hal_tim_ex.o(i.HAL_TIMEx_OCN_Stop_DMA), (168 bytes).
    Removing stm32f1xx_hal_tim_ex.o(i.HAL_TIMEx_OCN_Stop_IT), (166 bytes).
    Removing stm32f1xx_hal_tim_ex.o(i.HAL_TIMEx_OnePulseN_Start), (98 bytes).
    Removing stm32f1xx_hal_tim_ex.o(i.HAL_TIMEx_OnePulseN_Start_IT), (118 bytes).
    Removing stm32f1xx_hal_tim_ex.o(i.HAL_TIMEx_OnePulseN_Stop), (100 bytes).
    Removing stm32f1xx_hal_tim_ex.o(i.HAL_TIMEx_OnePulseN_Stop_IT), (120 bytes).
    Removing stm32f1xx_hal_tim_ex.o(i.HAL_TIMEx_PWMN_Start), (188 bytes).
    Removing stm32f1xx_hal_tim_ex.o(i.HAL_TIMEx_PWMN_Start_DMA), (396 bytes).
    Removing stm32f1xx_hal_tim_ex.o(i.HAL_TIMEx_PWMN_Start_IT), (244 bytes).
    Removing stm32f1xx_hal_tim_ex.o(i.HAL_TIMEx_PWMN_Stop), (106 bytes).
    Removing stm32f1xx_hal_tim_ex.o(i.HAL_TIMEx_PWMN_Stop_DMA), (168 bytes).
    Removing stm32f1xx_hal_tim_ex.o(i.HAL_TIMEx_PWMN_Stop_IT), (166 bytes).
    Removing stm32f1xx_hal_tim_ex.o(i.HAL_TIMEx_RemapConfig), (4 bytes).
    Removing stm32f1xx_hal_tim_ex.o(i.TIMEx_DMACommutationCplt), (16 bytes).
    Removing stm32f1xx_hal_tim_ex.o(i.TIMEx_DMACommutationHalfCplt), (16 bytes).
    Removing stm32f1xx_hal_tim_ex.o(i.TIM_CCxNChannelCmd), (26 bytes).
    Removing stm32f1xx_hal_tim_ex.o(i.TIM_DMADelayPulseNCplt), (94 bytes).
    Removing stm32f1xx_hal_tim_ex.o(i.TIM_DMAErrorCCxN), (62 bytes).
    Removing stm32f1xx_hal.o(.rev16_text), (4 bytes).
    Removing stm32f1xx_hal.o(.revsh_text), (4 bytes).
    Removing stm32f1xx_hal.o(.rrx_text), (6 bytes).
    Removing stm32f1xx_hal.o(i.HAL_DBGMCU_DisableDBGSleepMode), (16 bytes).
    Removing stm32f1xx_hal.o(i.HAL_DBGMCU_DisableDBGStandbyMode), (16 bytes).
    Removing stm32f1xx_hal.o(i.HAL_DBGMCU_DisableDBGStopMode), (16 bytes).
    Removing stm32f1xx_hal.o(i.HAL_DBGMCU_EnableDBGSleepMode), (16 bytes).
    Removing stm32f1xx_hal.o(i.HAL_DBGMCU_EnableDBGStandbyMode), (16 bytes).
    Removing stm32f1xx_hal.o(i.HAL_DBGMCU_EnableDBGStopMode), (16 bytes).
    Removing stm32f1xx_hal.o(i.HAL_DeInit), (32 bytes).
    Removing stm32f1xx_hal.o(i.HAL_GetDEVID), (16 bytes).
    Removing stm32f1xx_hal.o(i.HAL_GetHalVersion), (8 bytes).
    Removing stm32f1xx_hal.o(i.HAL_GetREVID), (12 bytes).
    Removing stm32f1xx_hal.o(i.HAL_GetTickFreq), (12 bytes).
    Removing stm32f1xx_hal.o(i.HAL_GetTickPrio), (12 bytes).
    Removing stm32f1xx_hal.o(i.HAL_GetUIDw0), (12 bytes).
    Removing stm32f1xx_hal.o(i.HAL_GetUIDw1), (12 bytes).
    Removing stm32f1xx_hal.o(i.HAL_GetUIDw2), (12 bytes).
    Removing stm32f1xx_hal.o(i.HAL_MspDeInit), (2 bytes).
    Removing stm32f1xx_hal.o(i.HAL_MspInit), (2 bytes).
    Removing stm32f1xx_hal.o(i.HAL_ResumeTick), (14 bytes).
    Removing stm32f1xx_hal.o(i.HAL_SetTickFreq), (36 bytes).
    Removing stm32f1xx_hal.o(i.HAL_SuspendTick), (14 bytes).
    Removing stm32f1xx_hal_rcc.o(.rev16_text), (4 bytes).
    Removing stm32f1xx_hal_rcc.o(.revsh_text), (4 bytes).
    Removing stm32f1xx_hal_rcc.o(.rrx_text), (6 bytes).
    Removing stm32f1xx_hal_rcc.o(i.HAL_RCC_CSSCallback), (2 bytes).
    Removing stm32f1xx_hal_rcc.o(i.HAL_RCC_DeInit), (228 bytes).
    Removing stm32f1xx_hal_rcc.o(i.HAL_RCC_DisableCSS), (12 bytes).
    Removing stm32f1xx_hal_rcc.o(i.HAL_RCC_EnableCSS), (12 bytes).
    Removing stm32f1xx_hal_rcc.o(i.HAL_RCC_GetClockConfig), (60 bytes).
    Removing stm32f1xx_hal_rcc.o(i.HAL_RCC_GetOscConfig), (148 bytes).
    Removing stm32f1xx_hal_rcc.o(i.HAL_RCC_MCOConfig), (72 bytes).
    Removing stm32f1xx_hal_rcc.o(i.HAL_RCC_NMI_IRQHandler), (24 bytes).
    Removing stm32f1xx_hal_rcc_ex.o(.rev16_text), (4 bytes).
    Removing stm32f1xx_hal_rcc_ex.o(.revsh_text), (4 bytes).
    Removing stm32f1xx_hal_rcc_ex.o(.rrx_text), (6 bytes).
    Removing stm32f1xx_hal_rcc_ex.o(i.HAL_RCCEx_GetPeriphCLKConfig), (52 bytes).
    Removing stm32f1xx_hal_rcc_ex.o(i.HAL_RCCEx_GetPeriphCLKFreq), (240 bytes).
    Removing stm32f1xx_hal_rcc_ex.o(i.HAL_RCCEx_PeriphCLKConfig), (268 bytes).
    Removing stm32f1xx_hal_gpio.o(.rev16_text), (4 bytes).
    Removing stm32f1xx_hal_gpio.o(.revsh_text), (4 bytes).
    Removing stm32f1xx_hal_gpio.o(.rrx_text), (6 bytes).
    Removing stm32f1xx_hal_gpio.o(i.HAL_GPIO_DeInit), (264 bytes).
    Removing stm32f1xx_hal_gpio.o(i.HAL_GPIO_EXTI_Callback), (2 bytes).
    Removing stm32f1xx_hal_gpio.o(i.HAL_GPIO_EXTI_IRQHandler), (24 bytes).
    Removing stm32f1xx_hal_gpio.o(i.HAL_GPIO_LockPin), (36 bytes).
    Removing stm32f1xx_hal_dma.o(.rev16_text), (4 bytes).
    Removing stm32f1xx_hal_dma.o(.revsh_text), (4 bytes).
    Removing stm32f1xx_hal_dma.o(.rrx_text), (6 bytes).
    Removing stm32f1xx_hal_dma.o(i.HAL_DMA_DeInit), (132 bytes).
    Removing stm32f1xx_hal_dma.o(i.HAL_DMA_GetError), (4 bytes).
    Removing stm32f1xx_hal_dma.o(i.HAL_DMA_GetState), (6 bytes).
    Removing stm32f1xx_hal_dma.o(i.HAL_DMA_PollForTransfer), (1268 bytes).
    Removing stm32f1xx_hal_dma.o(i.HAL_DMA_RegisterCallback), (76 bytes).
    Removing stm32f1xx_hal_dma.o(i.HAL_DMA_Start), (80 bytes).
    Removing stm32f1xx_hal_dma.o(i.HAL_DMA_UnRegisterCallback), (86 bytes).
    Removing stm32f1xx_hal_cortex.o(.rev16_text), (4 bytes).
    Removing stm32f1xx_hal_cortex.o(.revsh_text), (4 bytes).
    Removing stm32f1xx_hal_cortex.o(.rrx_text), (6 bytes).
    Removing stm32f1xx_hal_cortex.o(i.HAL_NVIC_ClearPendingIRQ), (26 bytes).
    Removing stm32f1xx_hal_cortex.o(i.HAL_NVIC_DisableIRQ), (34 bytes).
    Removing stm32f1xx_hal_cortex.o(i.HAL_NVIC_GetActive), (40 bytes).
    Removing stm32f1xx_hal_cortex.o(i.HAL_NVIC_GetPendingIRQ), (40 bytes).
    Removing stm32f1xx_hal_cortex.o(i.HAL_NVIC_GetPriority), (86 bytes).
    Removing stm32f1xx_hal_cortex.o(i.HAL_NVIC_GetPriorityGrouping), (16 bytes).
    Removing stm32f1xx_hal_cortex.o(i.HAL_NVIC_SetPendingIRQ), (26 bytes).
    Removing stm32f1xx_hal_cortex.o(i.HAL_NVIC_SystemReset), (36 bytes).
    Removing stm32f1xx_hal_cortex.o(i.HAL_SYSTICK_CLKSourceConfig), (28 bytes).
    Removing stm32f1xx_hal_cortex.o(i.HAL_SYSTICK_Callback), (2 bytes).
    Removing stm32f1xx_hal_cortex.o(i.HAL_SYSTICK_IRQHandler), (8 bytes).
    Removing stm32f1xx_hal_pwr.o(.rev16_text), (4 bytes).
    Removing stm32f1xx_hal_pwr.o(.revsh_text), (4 bytes).
    Removing stm32f1xx_hal_pwr.o(.rrx_text), (6 bytes).
    Removing stm32f1xx_hal_pwr.o(i.HAL_PWR_ConfigPVD), (124 bytes).
    Removing stm32f1xx_hal_pwr.o(i.HAL_PWR_DeInit), (24 bytes).
    Removing stm32f1xx_hal_pwr.o(i.HAL_PWR_DisableBkUpAccess), (12 bytes).
    Removing stm32f1xx_hal_pwr.o(i.HAL_PWR_DisablePVD), (12 bytes).
    Removing stm32f1xx_hal_pwr.o(i.HAL_PWR_DisableSEVOnPend), (16 bytes).
    Removing stm32f1xx_hal_pwr.o(i.HAL_PWR_DisableSleepOnExit), (16 bytes).
    Removing stm32f1xx_hal_pwr.o(i.HAL_PWR_DisableWakeUpPin), (28 bytes).
    Removing stm32f1xx_hal_pwr.o(i.HAL_PWR_EnableBkUpAccess), (12 bytes).
    Removing stm32f1xx_hal_pwr.o(i.HAL_PWR_EnablePVD), (12 bytes).
    Removing stm32f1xx_hal_pwr.o(i.HAL_PWR_EnableSEVOnPend), (16 bytes).
    Removing stm32f1xx_hal_pwr.o(i.HAL_PWR_EnableSleepOnExit), (16 bytes).
    Removing stm32f1xx_hal_pwr.o(i.HAL_PWR_EnableWakeUpPin), (28 bytes).
    Removing stm32f1xx_hal_pwr.o(i.HAL_PWR_EnterSLEEPMode), (32 bytes).
    Removing stm32f1xx_hal_pwr.o(i.HAL_PWR_EnterSTANDBYMode), (32 bytes).
    Removing stm32f1xx_hal_pwr.o(i.HAL_PWR_EnterSTOPMode), (68 bytes).
    Removing stm32f1xx_hal_pwr.o(i.HAL_PWR_PVDCallback), (2 bytes).
    Removing stm32f1xx_hal_pwr.o(i.HAL_PWR_PVD_IRQHandler), (28 bytes).
    Removing stm32f1xx_hal_pwr.o(i.PWR_OverloadWfe), (6 bytes).
    Removing stm32f1xx_hal_flash.o(.rev16_text), (4 bytes).
    Removing stm32f1xx_hal_flash.o(.revsh_text), (4 bytes).
    Removing stm32f1xx_hal_flash.o(.rrx_text), (6 bytes).
    Removing stm32f1xx_hal_flash.o(i.FLASH_Program_HalfWord), (28 bytes).
    Removing stm32f1xx_hal_flash.o(i.FLASH_SetErrorCode), (92 bytes).
    Removing stm32f1xx_hal_flash.o(i.FLASH_WaitForLastOperation), (84 bytes).
    Removing stm32f1xx_hal_flash.o(i.HAL_FLASH_EndOfOperationCallback), (2 bytes).
    Removing stm32f1xx_hal_flash.o(i.HAL_FLASH_GetError), (12 bytes).
    Removing stm32f1xx_hal_flash.o(i.HAL_FLASH_IRQHandler), (276 bytes).
    Removing stm32f1xx_hal_flash.o(i.HAL_FLASH_Lock), (20 bytes).
    Removing stm32f1xx_hal_flash.o(i.HAL_FLASH_OB_Launch), (4 bytes).
    Removing stm32f1xx_hal_flash.o(i.HAL_FLASH_OB_Lock), (20 bytes).
    Removing stm32f1xx_hal_flash.o(i.HAL_FLASH_OB_Unlock), (36 bytes).
    Removing stm32f1xx_hal_flash.o(i.HAL_FLASH_OperationErrorCallback), (2 bytes).
    Removing stm32f1xx_hal_flash.o(i.HAL_FLASH_Program), (140 bytes).
    Removing stm32f1xx_hal_flash.o(i.HAL_FLASH_Program_IT), (100 bytes).
    Removing stm32f1xx_hal_flash.o(i.HAL_FLASH_Unlock), (40 bytes).
    Removing stm32f1xx_hal_flash.o(.bss), (32 bytes).
    Removing stm32f1xx_hal_flash_ex.o(.rev16_text), (4 bytes).
    Removing stm32f1xx_hal_flash_ex.o(.revsh_text), (4 bytes).
    Removing stm32f1xx_hal_flash_ex.o(.rrx_text), (6 bytes).
    Removing stm32f1xx_hal_flash_ex.o(i.FLASH_MassErase), (36 bytes).
    Removing stm32f1xx_hal_flash_ex.o(i.FLASH_OB_DisableWRP), (180 bytes).
    Removing stm32f1xx_hal_flash_ex.o(i.FLASH_OB_EnableWRP), (180 bytes).
    Removing stm32f1xx_hal_flash_ex.o(i.FLASH_OB_GetRDP), (24 bytes).
    Removing stm32f1xx_hal_flash_ex.o(i.FLASH_OB_GetUser), (16 bytes).
    Removing stm32f1xx_hal_flash_ex.o(i.FLASH_OB_GetWRP), (12 bytes).
    Removing stm32f1xx_hal_flash_ex.o(i.FLASH_OB_ProgramData), (64 bytes).
    Removing stm32f1xx_hal_flash_ex.o(i.FLASH_OB_RDP_LevelConfig), (100 bytes).
    Removing stm32f1xx_hal_flash_ex.o(i.FLASH_OB_UserConfig), (68 bytes).
    Removing stm32f1xx_hal_flash_ex.o(i.FLASH_PageErase), (36 bytes).
    Removing stm32f1xx_hal_flash_ex.o(i.HAL_FLASHEx_Erase), (168 bytes).
    Removing stm32f1xx_hal_flash_ex.o(i.HAL_FLASHEx_Erase_IT), (84 bytes).
    Removing stm32f1xx_hal_flash_ex.o(i.HAL_FLASHEx_OBErase), (84 bytes).
    Removing stm32f1xx_hal_flash_ex.o(i.HAL_FLASHEx_OBGetConfig), (28 bytes).
    Removing stm32f1xx_hal_flash_ex.o(i.HAL_FLASHEx_OBGetUserData), (32 bytes).
    Removing stm32f1xx_hal_flash_ex.o(i.HAL_FLASHEx_OBProgram), (124 bytes).
    Removing stm32f1xx_hal_exti.o(.rev16_text), (4 bytes).
    Removing stm32f1xx_hal_exti.o(.revsh_text), (4 bytes).
    Removing stm32f1xx_hal_exti.o(.rrx_text), (6 bytes).
    Removing stm32f1xx_hal_exti.o(i.HAL_EXTI_ClearConfigLine), (108 bytes).
    Removing stm32f1xx_hal_exti.o(i.HAL_EXTI_ClearPending), (20 bytes).
    Removing stm32f1xx_hal_exti.o(i.HAL_EXTI_GenerateSWI), (20 bytes).
    Removing stm32f1xx_hal_exti.o(i.HAL_EXTI_GetConfigLine), (148 bytes).
    Removing stm32f1xx_hal_exti.o(i.HAL_EXTI_GetHandle), (14 bytes).
    Removing stm32f1xx_hal_exti.o(i.HAL_EXTI_GetPending), (24 bytes).
    Removing stm32f1xx_hal_exti.o(i.HAL_EXTI_IRQHandler), (36 bytes).
    Removing stm32f1xx_hal_exti.o(i.HAL_EXTI_RegisterCallback), (16 bytes).
    Removing stm32f1xx_hal_exti.o(i.HAL_EXTI_SetConfigLine), (180 bytes).
    Removing stm32f1xx_hal_uart.o(.rev16_text), (4 bytes).
    Removing stm32f1xx_hal_uart.o(.revsh_text), (4 bytes).
    Removing stm32f1xx_hal_uart.o(.rrx_text), (6 bytes).
    Removing stm32f1xx_hal_uart.o(i.HAL_HalfDuplex_EnableReceiver), (50 bytes).
    Removing stm32f1xx_hal_uart.o(i.HAL_HalfDuplex_EnableTransmitter), (50 bytes).
    Removing stm32f1xx_hal_uart.o(i.HAL_HalfDuplex_Init), (110 bytes).
    Removing stm32f1xx_hal_uart.o(i.HAL_LIN_Init), (130 bytes).
    Removing stm32f1xx_hal_uart.o(i.HAL_LIN_SendBreak), (46 bytes).
    Removing stm32f1xx_hal_uart.o(i.HAL_MultiProcessor_EnterMuteMode), (46 bytes).
    Removing stm32f1xx_hal_uart.o(i.HAL_MultiProcessor_ExitMuteMode), (46 bytes).
    Removing stm32f1xx_hal_uart.o(i.HAL_MultiProcessor_Init), (144 bytes).
    Removing stm32f1xx_hal_uart.o(i.HAL_UARTEx_ReceiveToIdle), (260 bytes).
    Removing stm32f1xx_hal_uart.o(i.HAL_UARTEx_ReceiveToIdle_DMA), (82 bytes).
    Removing stm32f1xx_hal_uart.o(i.HAL_UARTEx_ReceiveToIdle_IT), (82 bytes).
    Removing stm32f1xx_hal_uart.o(i.HAL_UART_Abort), (162 bytes).
    Removing stm32f1xx_hal_uart.o(i.HAL_UART_AbortCpltCallback), (2 bytes).
    Removing stm32f1xx_hal_uart.o(i.HAL_UART_AbortReceive), (106 bytes).
    Removing stm32f1xx_hal_uart.o(i.HAL_UART_AbortReceiveCpltCallback), (2 bytes).
    Removing stm32f1xx_hal_uart.o(i.HAL_UART_AbortReceive_IT), (128 bytes).
    Removing stm32f1xx_hal_uart.o(i.HAL_UART_AbortTransmit), (78 bytes).
    Removing stm32f1xx_hal_uart.o(i.HAL_UART_AbortTransmitCpltCallback), (2 bytes).
    Removing stm32f1xx_hal_uart.o(i.HAL_UART_AbortTransmit_IT), (96 bytes).
    Removing stm32f1xx_hal_uart.o(i.HAL_UART_Abort_IT), (196 bytes).
    Removing stm32f1xx_hal_uart.o(i.HAL_UART_DMAPause), (102 bytes).
    Removing stm32f1xx_hal_uart.o(i.HAL_UART_DMAResume), (94 bytes).
    Removing stm32f1xx_hal_uart.o(i.HAL_UART_DeInit), (50 bytes).
    Removing stm32f1xx_hal_uart.o(i.HAL_UART_GetError), (4 bytes).
    Removing stm32f1xx_hal_uart.o(i.HAL_UART_GetState), (12 bytes).
    Removing stm32f1xx_hal_uart.o(i.HAL_UART_MspDeInit), (2 bytes).
    Removing stm32f1xx_hal_uart.o(i.HAL_UART_MspInit), (2 bytes).
    Removing stm32f1xx_hal_uart.o(i.HAL_UART_Receive), (202 bytes).
    Removing stm32f1xx_hal_uart.o(i.HAL_UART_Receive_IT), (46 bytes).
    Removing stm32f1xx_hal_uart.o(i.HAL_UART_Transmit_DMA), (140 bytes).
    Removing stm32f1xx_hal_uart.o(i.HAL_UART_Transmit_IT), (66 bytes).
    Removing stm32f1xx_hal_uart.o(i.HAL_UART_TxHalfCpltCallback), (2 bytes).
    Removing stm32f1xx_hal_uart.o(i.UART_DMARxAbortCallback), (46 bytes).
    Removing stm32f1xx_hal_uart.o(i.UART_DMARxOnlyAbortCallback), (22 bytes).
    Removing stm32f1xx_hal_uart.o(i.UART_DMATransmitCplt), (46 bytes).
    Removing stm32f1xx_hal_uart.o(i.UART_DMATxAbortCallback), (46 bytes).
    Removing stm32f1xx_hal_uart.o(i.UART_DMATxHalfCplt), (10 bytes).
    Removing stm32f1xx_hal_uart.o(i.UART_DMATxOnlyAbortCallback), (20 bytes).
    Removing stm32f1xx_hal_uart.o(i.UART_Start_Receive_IT), (54 bytes).
    Removing dfixul.o(.text), (48 bytes).
    Removing dfixi.o(.text), (62 bytes).

435 unused section(s) (total 27602 bytes) removed from the image.

==============================================================================

Image Symbol Table

    Local Symbols

    Symbol Name                              Value     Ov Type        Size  Object(Section)

    ../Drivers/STM32F1xx_HAL_Driver/Src/stm32f1xx_hal.c 0x00000000   Number         0  stm32f1xx_hal.o ABSOLUTE
    ../Drivers/STM32F1xx_HAL_Driver/Src/stm32f1xx_hal_cortex.c 0x00000000   Number         0  stm32f1xx_hal_cortex.o ABSOLUTE
    ../Drivers/STM32F1xx_HAL_Driver/Src/stm32f1xx_hal_dma.c 0x00000000   Number         0  stm32f1xx_hal_dma.o ABSOLUTE
    ../Drivers/STM32F1xx_HAL_Driver/Src/stm32f1xx_hal_exti.c 0x00000000   Number         0  stm32f1xx_hal_exti.o ABSOLUTE
    ../Drivers/STM32F1xx_HAL_Driver/Src/stm32f1xx_hal_flash.c 0x00000000   Number         0  stm32f1xx_hal_flash.o ABSOLUTE
    ../Drivers/STM32F1xx_HAL_Driver/Src/stm32f1xx_hal_flash_ex.c 0x00000000   Number         0  stm32f1xx_hal_flash_ex.o ABSOLUTE
    ../Drivers/STM32F1xx_HAL_Driver/Src/stm32f1xx_hal_gpio.c 0x00000000   Number         0  stm32f1xx_hal_gpio.o ABSOLUTE
    ../Drivers/STM32F1xx_HAL_Driver/Src/stm32f1xx_hal_gpio_ex.c 0x00000000   Number         0  stm32f1xx_hal_gpio_ex.o ABSOLUTE
    ../Drivers/STM32F1xx_HAL_Driver/Src/stm32f1xx_hal_pwr.c 0x00000000   Number         0  stm32f1xx_hal_pwr.o ABSOLUTE
    ../Drivers/STM32F1xx_HAL_Driver/Src/stm32f1xx_hal_rcc.c 0x00000000   Number         0  stm32f1xx_hal_rcc.o ABSOLUTE
    ../Drivers/STM32F1xx_HAL_Driver/Src/stm32f1xx_hal_rcc_ex.c 0x00000000   Number         0  stm32f1xx_hal_rcc_ex.o ABSOLUTE
    ../Drivers/STM32F1xx_HAL_Driver/Src/stm32f1xx_hal_tim.c 0x00000000   Number         0  stm32f1xx_hal_tim.o ABSOLUTE
    ../Drivers/STM32F1xx_HAL_Driver/Src/stm32f1xx_hal_tim_ex.c 0x00000000   Number         0  stm32f1xx_hal_tim_ex.o ABSOLUTE
    ../Drivers/STM32F1xx_HAL_Driver/Src/stm32f1xx_hal_uart.c 0x00000000   Number         0  stm32f1xx_hal_uart.o ABSOLUTE
    ../Src/dma.c                             0x00000000   Number         0  dma.o ABSOLUTE
    ../Src/gpio.c                            0x00000000   Number         0  gpio.o ABSOLUTE
    ../Src/main.c                            0x00000000   Number         0  main.o ABSOLUTE
    ../Src/stm32f1xx_hal_msp.c               0x00000000   Number         0  stm32f1xx_hal_msp.o ABSOLUTE
    ../Src/stm32f1xx_it.c                    0x00000000   Number         0  stm32f1xx_it.o ABSOLUTE
    ../Src/system_stm32f1xx.c                0x00000000   Number         0  system_stm32f1xx.o ABSOLUTE
    ../Src/tim.c                             0x00000000   Number         0  tim.o ABSOLUTE
    ../Src/usart.c                           0x00000000   Number         0  usart.o ABSOLUTE
    ../clib/../cmprslib/zerorunl2.c          0x00000000   Number         0  __dczerorl2.o ABSOLUTE
    ../clib/microlib/division.c              0x00000000   Number         0  uidiv.o ABSOLUTE
    ../clib/microlib/division.c              0x00000000   Number         0  uldiv.o ABSOLUTE
    ../clib/microlib/errno.c                 0x00000000   Number         0  errno.o ABSOLUTE
    ../clib/microlib/init/entry.s            0x00000000   Number         0  entry11b.o ABSOLUTE
    ../clib/microlib/init/entry.s            0x00000000   Number         0  entry12a.o ABSOLUTE
    ../clib/microlib/init/entry.s            0x00000000   Number         0  entry12b.o ABSOLUTE
    ../clib/microlib/init/entry.s            0x00000000   Number         0  entry7b.o ABSOLUTE
    ../clib/microlib/init/entry.s            0x00000000   Number         0  entry2.o ABSOLUTE
    ../clib/microlib/init/entry.s            0x00000000   Number         0  entry.o ABSOLUTE
    ../clib/microlib/init/entry.s            0x00000000   Number         0  entry9b.o ABSOLUTE
    ../clib/microlib/init/entry.s            0x00000000   Number         0  entry8a.o ABSOLUTE
    ../clib/microlib/init/entry.s            0x00000000   Number         0  entry10a.o ABSOLUTE
    ../clib/microlib/init/entry.s            0x00000000   Number         0  entry8b.o ABSOLUTE
    ../clib/microlib/init/entry.s            0x00000000   Number         0  entry7a.o ABSOLUTE
    ../clib/microlib/init/entry.s            0x00000000   Number         0  entry10b.o ABSOLUTE
    ../clib/microlib/init/entry.s            0x00000000   Number         0  entry11a.o ABSOLUTE
    ../clib/microlib/init/entry.s            0x00000000   Number         0  entry5.o ABSOLUTE
    ../clib/microlib/init/entry.s            0x00000000   Number         0  entry9a.o ABSOLUTE
    ../clib/microlib/longlong.c              0x00000000   Number         0  llushr.o ABSOLUTE
    ../clib/microlib/longlong.c              0x00000000   Number         0  llshl.o ABSOLUTE
    ../clib/microlib/longlong.c              0x00000000   Number         0  llsshr.o ABSOLUTE
    ../clib/microlib/printf/printf.c         0x00000000   Number         0  printf7.o ABSOLUTE
    ../clib/microlib/printf/printf.c         0x00000000   Number         0  printfa.o ABSOLUTE
    ../clib/microlib/printf/printf.c         0x00000000   Number         0  printf8.o ABSOLUTE
    ../clib/microlib/printf/printf.c         0x00000000   Number         0  printf5.o ABSOLUTE
    ../clib/microlib/printf/printf.c         0x00000000   Number         0  printf4.o ABSOLUTE
    ../clib/microlib/printf/printf.c         0x00000000   Number         0  printf3.o ABSOLUTE
    ../clib/microlib/printf/printf.c         0x00000000   Number         0  printf2.o ABSOLUTE
    ../clib/microlib/printf/printf.c         0x00000000   Number         0  printf1.o ABSOLUTE
    ../clib/microlib/printf/printf.c         0x00000000   Number         0  printf0.o ABSOLUTE
    ../clib/microlib/printf/printf.c         0x00000000   Number         0  printfb.o ABSOLUTE
    ../clib/microlib/printf/printf.c         0x00000000   Number         0  printf6.o ABSOLUTE
    ../clib/microlib/printf/stubs.s          0x00000000   Number         0  stubs.o ABSOLUTE
    ../clib/microlib/string/memcpy.c         0x00000000   Number         0  memcpyb.o ABSOLUTE
    ../clib/microlib/string/memcpy.c         0x00000000   Number         0  memcpya.o ABSOLUTE
    ../clib/microlib/string/memset.c         0x00000000   Number         0  memseta.o ABSOLUTE
    ../clib/microlib/stubs.s                 0x00000000   Number         0  useno.o ABSOLUTE
    ../clib/microlib/stubs.s                 0x00000000   Number         0  iusefp.o ABSOLUTE
    ../fplib/microlib/d2f.c                  0x00000000   Number         0  d2f.o ABSOLUTE
    ../fplib/microlib/f2d.c                  0x00000000   Number         0  f2d.o ABSOLUTE
    ../fplib/microlib/fpadd.c                0x00000000   Number         0  dadd.o ABSOLUTE
    ../fplib/microlib/fpadd.c                0x00000000   Number         0  fadd.o ABSOLUTE
    ../fplib/microlib/fpdiv.c                0x00000000   Number         0  fdiv.o ABSOLUTE
    ../fplib/microlib/fpdiv.c                0x00000000   Number         0  ddiv.o ABSOLUTE
    ../fplib/microlib/fpepilogue.c           0x00000000   Number         0  depilogue.o ABSOLUTE
    ../fplib/microlib/fpepilogue.c           0x00000000   Number         0  fepilogue.o ABSOLUTE
    ../fplib/microlib/fpfix.c                0x00000000   Number         0  ffixi.o ABSOLUTE
    ../fplib/microlib/fpfix.c                0x00000000   Number         0  dfixui.o ABSOLUTE
    ../fplib/microlib/fpfix.c                0x00000000   Number         0  dfixi.o ABSOLUTE
    ../fplib/microlib/fpfix.c                0x00000000   Number         0  dfixul.o ABSOLUTE
    ../fplib/microlib/fpflt.c                0x00000000   Number         0  ffltui.o ABSOLUTE
    ../fplib/microlib/fpflt.c                0x00000000   Number         0  dfltui.o ABSOLUTE
    ../fplib/microlib/fpflt.c                0x00000000   Number         0  fflti.o ABSOLUTE
    ../fplib/microlib/fpflt.c                0x00000000   Number         0  dflti.o ABSOLUTE
    ../fplib/microlib/fpmul.c                0x00000000   Number         0  dmul.o ABSOLUTE
    ../fplib/microlib/fpmul.c                0x00000000   Number         0  fmul.o ABSOLUTE
    ../fplib/microlib/fpscalb.c              0x00000000   Number         0  dscalb.o ABSOLUTE
    ../fplib/microlib/fpscalb.c              0x00000000   Number         0  fscalb.o ABSOLUTE
    ../mathlib/cos_i.c                       0x00000000   Number         0  cos_i.o ABSOLUTE
    ../mathlib/dunder.c                      0x00000000   Number         0  dunder.o ABSOLUTE
    ../mathlib/floor.c                       0x00000000   Number         0  floor.o ABSOLUTE
    ../mathlib/fpclassify.c                  0x00000000   Number         0  fpclassify.o ABSOLUTE
    ../mathlib/poly.c                        0x00000000   Number         0  poly.o ABSOLUTE
    ../mathlib/rred.c                        0x00000000   Number         0  rred.o ABSOLUTE
    ../mathlib/sin.c                         0x00000000   Number         0  sin_x.o ABSOLUTE
    ../mathlib/sin.c                         0x00000000   Number         0  sin.o ABSOLUTE
    ../mathlib/sin_i.c                       0x00000000   Number         0  sin_i.o ABSOLUTE
    ../mathlib/sin_i.c                       0x00000000   Number         0  sin_i_x.o ABSOLUTE
    ..\Drivers\STM32F1xx_HAL_Driver\Src\stm32f1xx_hal.c 0x00000000   Number         0  stm32f1xx_hal.o ABSOLUTE
    ..\Drivers\STM32F1xx_HAL_Driver\Src\stm32f1xx_hal_cortex.c 0x00000000   Number         0  stm32f1xx_hal_cortex.o ABSOLUTE
    ..\Drivers\STM32F1xx_HAL_Driver\Src\stm32f1xx_hal_dma.c 0x00000000   Number         0  stm32f1xx_hal_dma.o ABSOLUTE
    ..\Drivers\STM32F1xx_HAL_Driver\Src\stm32f1xx_hal_exti.c 0x00000000   Number         0  stm32f1xx_hal_exti.o ABSOLUTE
    ..\Drivers\STM32F1xx_HAL_Driver\Src\stm32f1xx_hal_flash.c 0x00000000   Number         0  stm32f1xx_hal_flash.o ABSOLUTE
    ..\Drivers\STM32F1xx_HAL_Driver\Src\stm32f1xx_hal_flash_ex.c 0x00000000   Number         0  stm32f1xx_hal_flash_ex.o ABSOLUTE
    ..\Drivers\STM32F1xx_HAL_Driver\Src\stm32f1xx_hal_gpio.c 0x00000000   Number         0  stm32f1xx_hal_gpio.o ABSOLUTE
    ..\Drivers\STM32F1xx_HAL_Driver\Src\stm32f1xx_hal_gpio_ex.c 0x00000000   Number         0  stm32f1xx_hal_gpio_ex.o ABSOLUTE
    ..\Drivers\STM32F1xx_HAL_Driver\Src\stm32f1xx_hal_pwr.c 0x00000000   Number         0  stm32f1xx_hal_pwr.o ABSOLUTE
    ..\Drivers\STM32F1xx_HAL_Driver\Src\stm32f1xx_hal_rcc.c 0x00000000   Number         0  stm32f1xx_hal_rcc.o ABSOLUTE
    ..\Drivers\STM32F1xx_HAL_Driver\Src\stm32f1xx_hal_rcc_ex.c 0x00000000   Number         0  stm32f1xx_hal_rcc_ex.o ABSOLUTE
    ..\Drivers\STM32F1xx_HAL_Driver\Src\stm32f1xx_hal_tim.c 0x00000000   Number         0  stm32f1xx_hal_tim.o ABSOLUTE
    ..\Drivers\STM32F1xx_HAL_Driver\Src\stm32f1xx_hal_tim_ex.c 0x00000000   Number         0  stm32f1xx_hal_tim_ex.o ABSOLUTE
    ..\Drivers\STM32F1xx_HAL_Driver\Src\stm32f1xx_hal_uart.c 0x00000000   Number         0  stm32f1xx_hal_uart.o ABSOLUTE
    ..\Src\dma.c                             0x00000000   Number         0  dma.o ABSOLUTE
    ..\Src\gpio.c                            0x00000000   Number         0  gpio.o ABSOLUTE
    ..\Src\main.c                            0x00000000   Number         0  main.o ABSOLUTE
    ..\Src\stm32f1xx_hal_msp.c               0x00000000   Number         0  stm32f1xx_hal_msp.o ABSOLUTE
    ..\Src\stm32f1xx_it.c                    0x00000000   Number         0  stm32f1xx_it.o ABSOLUTE
    ..\Src\system_stm32f1xx.c                0x00000000   Number         0  system_stm32f1xx.o ABSOLUTE
    ..\Src\tim.c                             0x00000000   Number         0  tim.o ABSOLUTE
    ..\Src\usart.c                           0x00000000   Number         0  usart.o ABSOLUTE
    ..\\algorithm\\pid.c                     0x00000000   Number         0  pid.o ABSOLUTE
    ..\\algorithm\\sin_generate.c            0x00000000   Number         0  sin_generate.o ABSOLUTE
    ..\\application\\barrier.c               0x00000000   Number         0  barrier.o ABSOLUTE
    ..\\application\\map.c                   0x00000000   Number         0  map.o ABSOLUTE
    ..\\application\\map_message.c           0x00000000   Number         0  map_message.o ABSOLUTE
    ..\\application\\motion.c                0x00000000   Number         0  motion.o ABSOLUTE
    ..\\application\\scaner.c                0x00000000   Number         0  scaner.o ABSOLUTE
    ..\\application\\speed_ctrl.c            0x00000000   Number         0  speed_ctrl.o ABSOLUTE
    ..\\application\\turn.c                  0x00000000   Number         0  turn.o ABSOLUTE
    ..\\bsp\\boards\\bsp_buzzer.c            0x00000000   Number         0  bsp_buzzer.o ABSOLUTE
    ..\\bsp\\boards\\bsp_delay.c             0x00000000   Number         0  bsp_delay.o ABSOLUTE
    ..\\bsp\\boards\\bsp_imu.c               0x00000000   Number         0  bsp_imu.o ABSOLUTE
    ..\\bsp\\boards\\bsp_led.c               0x00000000   Number         0  bsp_led.o ABSOLUTE
    ..\\bsp\\boards\\bsp_linefollower.c      0x00000000   Number         0  bsp_linefollower.o ABSOLUTE
    ..\\bsp\\boards\\bsp_motor.c             0x00000000   Number         0  bsp_motor.o ABSOLUTE
    ..\\bsp\\boards\\bsp_servo_iic.c         0x00000000   Number         0  bsp_servo_iic.o ABSOLUTE
    ..\\controller\\tim_it.c                 0x00000000   Number         0  tim_it.o ABSOLUTE
    ..\algorithm\pid.c                       0x00000000   Number         0  pid.o ABSOLUTE
    ..\algorithm\sin_generate.c              0x00000000   Number         0  sin_generate.o ABSOLUTE
    ..\application\barrier.c                 0x00000000   Number         0  barrier.o ABSOLUTE
    ..\application\map.c                     0x00000000   Number         0  map.o ABSOLUTE
    ..\application\map_message.c             0x00000000   Number         0  map_message.o ABSOLUTE
    ..\application\motion.c                  0x00000000   Number         0  motion.o ABSOLUTE
    ..\application\scaner.c                  0x00000000   Number         0  scaner.o ABSOLUTE
    ..\application\speed_ctrl.c              0x00000000   Number         0  speed_ctrl.o ABSOLUTE
    ..\application\turn.c                    0x00000000   Number         0  turn.o ABSOLUTE
    ..\bsp\boards\bsp_buzzer.c               0x00000000   Number         0  bsp_buzzer.o ABSOLUTE
    ..\bsp\boards\bsp_delay.c                0x00000000   Number         0  bsp_delay.o ABSOLUTE
    ..\bsp\boards\bsp_imu.c                  0x00000000   Number         0  bsp_imu.o ABSOLUTE
    ..\bsp\boards\bsp_led.c                  0x00000000   Number         0  bsp_led.o ABSOLUTE
    ..\bsp\boards\bsp_linefollower.c         0x00000000   Number         0  bsp_linefollower.o ABSOLUTE
    ..\bsp\boards\bsp_motor.c                0x00000000   Number         0  bsp_motor.o ABSOLUTE
    ..\bsp\boards\bsp_servo_iic.c            0x00000000   Number         0  bsp_servo_iic.o ABSOLUTE
    ..\controller\tim_it.c                   0x00000000   Number         0  tim_it.o ABSOLUTE
    bsp_QRscan.c                             0x00000000   Number         0  bsp_qrscan.o ABSOLUTE
    bsp_QRscan.c                             0x00000000   Number         0  bsp_qrscan.o ABSOLUTE
    cdcmple.s                                0x00000000   Number         0  cdcmple.o ABSOLUTE
    cdrcmple.s                               0x00000000   Number         0  cdrcmple.o ABSOLUTE
    cfcmple.s                                0x00000000   Number         0  cfcmple.o ABSOLUTE
    cfrcmple.s                               0x00000000   Number         0  cfrcmple.o ABSOLUTE
    dc.s                                     0x00000000   Number         0  dc.o ABSOLUTE
    handlers.s                               0x00000000   Number         0  handlers.o ABSOLUTE
    init.s                                   0x00000000   Number         0  init.o ABSOLUTE
    openmv.c                                 0x00000000   Number         0  openmv.o ABSOLUTE
    openmv.c                                 0x00000000   Number         0  openmv.o ABSOLUTE
    startup_stm32f103xe.s                    0x00000000   Number         0  startup_stm32f103xe.o ABSOLUTE
    RESET                                    0x08000000   Section      304  startup_stm32f103xe.o(RESET)
    .ARM.Collect$$$$00000000                 0x08000130   Section        0  entry.o(.ARM.Collect$$$$00000000)
    .ARM.Collect$$$$00000001                 0x08000130   Section        4  entry2.o(.ARM.Collect$$$$00000001)
    .ARM.Collect$$$$00000004                 0x08000134   Section        4  entry5.o(.ARM.Collect$$$$00000004)
    .ARM.Collect$$$$00000008                 0x08000138   Section        0  entry7b.o(.ARM.Collect$$$$00000008)
    .ARM.Collect$$$$0000000A                 0x08000138   Section        0  entry8b.o(.ARM.Collect$$$$0000000A)
    .ARM.Collect$$$$0000000B                 0x08000138   Section        8  entry9a.o(.ARM.Collect$$$$0000000B)
    .ARM.Collect$$$$0000000E                 0x08000140   Section        4  entry12b.o(.ARM.Collect$$$$0000000E)
    .ARM.Collect$$$$0000000F                 0x08000144   Section        0  entry10a.o(.ARM.Collect$$$$0000000F)
    .ARM.Collect$$$$00000011                 0x08000144   Section        0  entry11a.o(.ARM.Collect$$$$00000011)
    .ARM.Collect$$$$00002712                 0x08000144   Section        4  entry2.o(.ARM.Collect$$$$00002712)
    __lit__00000000                          0x08000144   Data           4  entry2.o(.ARM.Collect$$$$00002712)
    .text                                    0x08000148   Section       36  startup_stm32f103xe.o(.text)
    .text                                    0x0800016c   Section        0  llushr.o(.text)
    .text                                    0x0800018c   Section        0  memcpya.o(.text)
    .text                                    0x080001b0   Section        0  memseta.o(.text)
    .text                                    0x080001d4   Section        0  fadd.o(.text)
    .text                                    0x08000284   Section        0  fmul.o(.text)
    .text                                    0x080002e8   Section        0  fdiv.o(.text)
    .text                                    0x08000364   Section        0  fscalb.o(.text)
    .text                                    0x0800037c   Section        0  dadd.o(.text)
    .text                                    0x080004ca   Section        0  dmul.o(.text)
    .text                                    0x080005ae   Section        0  ddiv.o(.text)
    .text                                    0x0800068c   Section        0  dscalb.o(.text)
    .text                                    0x080006ba   Section        0  fflti.o(.text)
    .text                                    0x080006cc   Section        0  ffltui.o(.text)
    .text                                    0x080006d6   Section        0  dflti.o(.text)
    .text                                    0x080006f8   Section        0  dfltui.o(.text)
    .text                                    0x08000712   Section        0  ffixi.o(.text)
    .text                                    0x08000744   Section        0  dfixui.o(.text)
    .text                                    0x08000776   Section        0  f2d.o(.text)
    .text                                    0x0800079c   Section       48  cdcmple.o(.text)
    .text                                    0x080007cc   Section       48  cdrcmple.o(.text)
    .text                                    0x080007fc   Section        0  d2f.o(.text)
    .text                                    0x08000834   Section       20  cfcmple.o(.text)
    .text                                    0x08000848   Section       20  cfrcmple.o(.text)
    .text                                    0x0800085c   Section        0  llshl.o(.text)
    .text                                    0x0800087a   Section        0  llsshr.o(.text)
    .text                                    0x0800089e   Section        0  iusefp.o(.text)
    .text                                    0x0800089e   Section        0  fepilogue.o(.text)
    .text                                    0x0800090c   Section        0  depilogue.o(.text)
    .text                                    0x080009c8   Section       36  init.o(.text)
    .text                                    0x080009ec   Section        0  __dczerorl2.o(.text)
    i.AdCircle                               0x08000a44   Section        0  turn.o(i.AdCircle)
    i.Anti_shake                             0x08000a68   Section        0  barrier.o(i.Anti_shake)
    i.Barrier_Bridge                         0x08000a8c   Section        0  barrier.o(i.Barrier_Bridge)
    i.Barrier_Down_HighMountain              0x08000ba8   Section        0  barrier.o(i.Barrier_Down_HighMountain)
    i.Barrier_HighMountain                   0x08000c44   Section        0  barrier.o(i.Barrier_HighMountain)
    i.Barrier_Hill                           0x08000e78   Section        0  barrier.o(i.Barrier_Hill)
    i.Barrier_WavedPlate                     0x08000f0c   Section        0  barrier.o(i.Barrier_WavedPlate)
    i.BusFault_Handler                       0x08000f4c   Section        0  stm32f1xx_it.o(i.BusFault_Handler)
    i.CarBrake                               0x08000f50   Section        0  speed_ctrl.o(i.CarBrake)
    i.Cross                                  0x08000f68   Section        0  map.o(i.Cross)
    i.DMA1_Channel3_IRQHandler               0x0800149c   Section        0  stm32f1xx_it.o(i.DMA1_Channel3_IRQHandler)
    i.DMA1_Channel6_IRQHandler               0x080014a0   Section        0  stm32f1xx_it.o(i.DMA1_Channel6_IRQHandler)
    i.DMA_SetConfig                          0x080014ac   Section        0  stm32f1xx_hal_dma.o(i.DMA_SetConfig)
    DMA_SetConfig                            0x080014ad   Thumb Code    44  stm32f1xx_hal_dma.o(i.DMA_SetConfig)
    i.DebugMon_Handler                       0x080014d8   Section        0  stm32f1xx_it.o(i.DebugMon_Handler)
    i.Error_Handler                          0x080014da   Section        0  main.o(i.Error_Handler)
    i.Go_Line                                0x080014f0   Section        0  scaner.o(i.Go_Line)
    i.HAL_DMA_Abort                          0x08001560   Section        0  stm32f1xx_hal_dma.o(i.HAL_DMA_Abort)
    i.HAL_DMA_Abort_IT                       0x080015a8   Section        0  stm32f1xx_hal_dma.o(i.HAL_DMA_Abort_IT)
    i.HAL_DMA_IRQHandler                     0x080016f8   Section        0  stm32f1xx_hal_dma.o(i.HAL_DMA_IRQHandler)
    i.HAL_DMA_Init                           0x08001998   Section        0  stm32f1xx_hal_dma.o(i.HAL_DMA_Init)
    i.HAL_DMA_Start_IT                       0x08001a18   Section        0  stm32f1xx_hal_dma.o(i.HAL_DMA_Start_IT)
    i.HAL_Delay                              0x08001a8c   Section        0  stm32f1xx_hal.o(i.HAL_Delay)
    i.HAL_GPIO_Init                          0x08001ab0   Section        0  stm32f1xx_hal_gpio.o(i.HAL_GPIO_Init)
    i.HAL_GPIO_ReadPin                       0x08001cc4   Section        0  stm32f1xx_hal_gpio.o(i.HAL_GPIO_ReadPin)
    i.HAL_GPIO_TogglePin                     0x08001cd2   Section        0  stm32f1xx_hal_gpio.o(i.HAL_GPIO_TogglePin)
    i.HAL_GPIO_WritePin                      0x08001ce2   Section        0  stm32f1xx_hal_gpio.o(i.HAL_GPIO_WritePin)
    i.HAL_GetTick                            0x08001cf0   Section        0  stm32f1xx_hal.o(i.HAL_GetTick)
    i.HAL_IncTick                            0x08001cfc   Section        0  stm32f1xx_hal.o(i.HAL_IncTick)
    i.HAL_Init                               0x08001d0c   Section        0  stm32f1xx_hal.o(i.HAL_Init)
    i.HAL_InitTick                           0x08001d30   Section        0  stm32f1xx_hal.o(i.HAL_InitTick)
    i.HAL_MspInit                            0x08001d74   Section        0  stm32f1xx_hal_msp.o(i.HAL_MspInit)
    i.HAL_NVIC_EnableIRQ                     0x08001dbc   Section        0  stm32f1xx_hal_cortex.o(i.HAL_NVIC_EnableIRQ)
    i.HAL_NVIC_SetPriority                   0x08001dd8   Section        0  stm32f1xx_hal_cortex.o(i.HAL_NVIC_SetPriority)
    i.HAL_NVIC_SetPriorityGrouping           0x08001e18   Section        0  stm32f1xx_hal_cortex.o(i.HAL_NVIC_SetPriorityGrouping)
    i.HAL_RCC_ClockConfig                    0x08001e3c   Section        0  stm32f1xx_hal_rcc.o(i.HAL_RCC_ClockConfig)
    i.HAL_RCC_GetHCLKFreq                    0x08001f90   Section        0  stm32f1xx_hal_rcc.o(i.HAL_RCC_GetHCLKFreq)
    i.HAL_RCC_GetPCLK1Freq                   0x08001f9c   Section        0  stm32f1xx_hal_rcc.o(i.HAL_RCC_GetPCLK1Freq)
    i.HAL_RCC_GetPCLK2Freq                   0x08001fbc   Section        0  stm32f1xx_hal_rcc.o(i.HAL_RCC_GetPCLK2Freq)
    i.HAL_RCC_GetSysClockFreq                0x08001fdc   Section        0  stm32f1xx_hal_rcc.o(i.HAL_RCC_GetSysClockFreq)
    i.HAL_RCC_OscConfig                      0x08002050   Section        0  stm32f1xx_hal_rcc.o(i.HAL_RCC_OscConfig)
    i.HAL_SYSTICK_Config                     0x080023d4   Section        0  stm32f1xx_hal_cortex.o(i.HAL_SYSTICK_Config)
    i.HAL_TIMEx_BreakCallback                0x080023fc   Section        0  stm32f1xx_hal_tim_ex.o(i.HAL_TIMEx_BreakCallback)
    i.HAL_TIMEx_CommutCallback               0x080023fe   Section        0  stm32f1xx_hal_tim_ex.o(i.HAL_TIMEx_CommutCallback)
    i.HAL_TIMEx_ConfigBreakDeadTime          0x08002400   Section        0  stm32f1xx_hal_tim_ex.o(i.HAL_TIMEx_ConfigBreakDeadTime)
    i.HAL_TIMEx_MasterConfigSynchronization  0x08002454   Section        0  stm32f1xx_hal_tim_ex.o(i.HAL_TIMEx_MasterConfigSynchronization)
    i.HAL_TIM_Base_Init                      0x080024d0   Section        0  stm32f1xx_hal_tim.o(i.HAL_TIM_Base_Init)
    i.HAL_TIM_Base_MspInit                   0x0800251c   Section        0  tim.o(i.HAL_TIM_Base_MspInit)
    i.HAL_TIM_Base_Start_IT                  0x0800258c   Section        0  stm32f1xx_hal_tim.o(i.HAL_TIM_Base_Start_IT)
    i.HAL_TIM_ConfigClockSource              0x08002604   Section        0  stm32f1xx_hal_tim.o(i.HAL_TIM_ConfigClockSource)
    i.HAL_TIM_Encoder_Init                   0x080026e6   Section        0  stm32f1xx_hal_tim.o(i.HAL_TIM_Encoder_Init)
    i.HAL_TIM_Encoder_MspInit                0x08002798   Section        0  tim.o(i.HAL_TIM_Encoder_MspInit)
    i.HAL_TIM_Encoder_Start                  0x080028d4   Section        0  stm32f1xx_hal_tim.o(i.HAL_TIM_Encoder_Start)
    i.HAL_TIM_IC_CaptureCallback             0x0800297c   Section        0  stm32f1xx_hal_tim.o(i.HAL_TIM_IC_CaptureCallback)
    i.HAL_TIM_IRQHandler                     0x0800297e   Section        0  stm32f1xx_hal_tim.o(i.HAL_TIM_IRQHandler)
    i.HAL_TIM_MspPostInit                    0x08002aec   Section        0  tim.o(i.HAL_TIM_MspPostInit)
    i.HAL_TIM_OC_DelayElapsedCallback        0x08002b6c   Section        0  stm32f1xx_hal_tim.o(i.HAL_TIM_OC_DelayElapsedCallback)
    i.HAL_TIM_PWM_ConfigChannel              0x08002b6e   Section        0  stm32f1xx_hal_tim.o(i.HAL_TIM_PWM_ConfigChannel)
    i.HAL_TIM_PWM_Init                       0x08002c40   Section        0  stm32f1xx_hal_tim.o(i.HAL_TIM_PWM_Init)
    i.HAL_TIM_PWM_MspInit                    0x08002c8a   Section        0  stm32f1xx_hal_tim.o(i.HAL_TIM_PWM_MspInit)
    i.HAL_TIM_PWM_PulseFinishedCallback      0x08002c8c   Section        0  stm32f1xx_hal_tim.o(i.HAL_TIM_PWM_PulseFinishedCallback)
    i.HAL_TIM_PWM_Start                      0x08002c90   Section        0  stm32f1xx_hal_tim.o(i.HAL_TIM_PWM_Start)
    i.HAL_TIM_PeriodElapsedCallback          0x08002d58   Section        0  tim_it.o(i.HAL_TIM_PeriodElapsedCallback)
    i.HAL_TIM_TriggerCallback                0x08002fd8   Section        0  stm32f1xx_hal_tim.o(i.HAL_TIM_TriggerCallback)
    i.HAL_UARTEx_RxEventCallback             0x08002fda   Section        0  stm32f1xx_hal_uart.o(i.HAL_UARTEx_RxEventCallback)
    i.HAL_UART_DMAStop                       0x08002fdc   Section        0  stm32f1xx_hal_uart.o(i.HAL_UART_DMAStop)
    i.HAL_UART_ErrorCallback                 0x08003034   Section        0  stm32f1xx_hal_uart.o(i.HAL_UART_ErrorCallback)
    i.HAL_UART_IRQHandler                    0x08003038   Section        0  stm32f1xx_hal_uart.o(i.HAL_UART_IRQHandler)
    i.HAL_UART_Init                          0x08003204   Section        0  stm32f1xx_hal_uart.o(i.HAL_UART_Init)
    i.HAL_UART_MspInit                       0x08003268   Section        0  usart.o(i.HAL_UART_MspInit)
    i.HAL_UART_Receive_DMA                   0x08003498   Section        0  stm32f1xx_hal_uart.o(i.HAL_UART_Receive_DMA)
    i.HAL_UART_RxCpltCallback                0x080034c6   Section        0  stm32f1xx_hal_uart.o(i.HAL_UART_RxCpltCallback)
    i.HAL_UART_RxHalfCpltCallback            0x080034c8   Section        0  stm32f1xx_hal_uart.o(i.HAL_UART_RxHalfCpltCallback)
    i.HAL_UART_Transmit                      0x080034ca   Section        0  stm32f1xx_hal_uart.o(i.HAL_UART_Transmit)
    i.HAL_UART_TxCpltCallback                0x08003588   Section        0  stm32f1xx_hal_uart.o(i.HAL_UART_TxCpltCallback)
    i.HardFault_Handler                      0x0800358a   Section        0  stm32f1xx_it.o(i.HardFault_Handler)
    i.LED_on                                 0x0800358c   Section        0  bsp_led.o(i.LED_on)
    i.LED_twinkle                            0x0800359c   Section        0  bsp_led.o(i.LED_twinkle)
    i.LFB_receive_init                       0x080035ac   Section        0  bsp_linefollower.o(i.LFB_receive_init)
    i.LFB_send                               0x080035c0   Section        0  bsp_linefollower.o(i.LFB_send)
    i.MX_DMA_Init                            0x080035e0   Section        0  dma.o(i.MX_DMA_Init)
    i.MX_GPIO_Init                           0x0800361c   Section        0  gpio.o(i.MX_GPIO_Init)
    i.MX_TIM1_Init                           0x08003730   Section        0  tim.o(i.MX_TIM1_Init)
    i.MX_TIM2_Init                           0x08003828   Section        0  tim.o(i.MX_TIM2_Init)
    i.MX_TIM3_Init                           0x08003894   Section        0  tim.o(i.MX_TIM3_Init)
    i.MX_TIM4_Init                           0x08003900   Section        0  tim.o(i.MX_TIM4_Init)
    i.MX_TIM5_Init                           0x0800396c   Section        0  tim.o(i.MX_TIM5_Init)
    i.MX_TIM6_Init                           0x080039d8   Section        0  tim.o(i.MX_TIM6_Init)
    i.MX_TIM8_Init                           0x08003a20   Section        0  tim.o(i.MX_TIM8_Init)
    i.MX_UART4_Init                          0x08003b18   Section        0  usart.o(i.MX_UART4_Init)
    i.MX_UART5_Init                          0x08003b50   Section        0  usart.o(i.MX_UART5_Init)
    i.MX_USART2_UART_Init                    0x08003b88   Section        0  usart.o(i.MX_USART2_UART_Init)
    i.MX_USART3_UART_Init                    0x08003bc0   Section        0  usart.o(i.MX_USART3_UART_Init)
    i.MemManage_Handler                      0x08003bf8   Section        0  stm32f1xx_it.o(i.MemManage_Handler)
    i.NMI_Handler                            0x08003bfa   Section        0  stm32f1xx_it.o(i.NMI_Handler)
    i.QQB_1                                  0x08003bfc   Section        0  barrier.o(i.QQB_1)
    i.QR_receive_init                        0x08003e24   Section        0  bsp_qrscan.o(i.QR_receive_init)
    i.RCC_Delay                              0x08003e38   Section        0  stm32f1xx_hal_rcc.o(i.RCC_Delay)
    RCC_Delay                                0x08003e39   Thumb Code    30  stm32f1xx_hal_rcc.o(i.RCC_Delay)
    i.S_curve                                0x08003e5c   Section        0  barrier.o(i.S_curve)
    i.Shine_o_f                              0x08003f44   Section        0  bsp_led.o(i.Shine_o_f)
    i.Shine_off                              0x08003f60   Section        0  bsp_led.o(i.Shine_off)
    i.Shine_on                               0x08003f70   Section        0  bsp_led.o(i.Shine_on)
    i.South_Pole                             0x08003f80   Section        0  barrier.o(i.South_Pole)
    i.Stage                                  0x08004110   Section        0  barrier.o(i.Stage)
    i.Stage_P2                               0x08004300   Section        0  barrier.o(i.Stage_P2)
    i.Sword_Mountain                         0x0800438c   Section        0  barrier.o(i.Sword_Mountain)
    i.SysTick_Handler                        0x0800443c   Section        0  stm32f1xx_it.o(i.SysTick_Handler)
    i.SystemClock_Config                     0x08004440   Section        0  main.o(i.SystemClock_Config)
    i.SystemInit                             0x080044a0   Section        0  system_stm32f1xx.o(i.SystemInit)
    i.TIM6_IRQHandler                        0x080044e8   Section        0  stm32f1xx_it.o(i.TIM6_IRQHandler)
    i.TIM_Base_SetConfig                     0x080044f4   Section        0  stm32f1xx_hal_tim.o(i.TIM_Base_SetConfig)
    i.TIM_CCxChannelCmd                      0x08004584   Section        0  stm32f1xx_hal_tim.o(i.TIM_CCxChannelCmd)
    i.TIM_ETR_SetConfig                      0x0800459e   Section        0  stm32f1xx_hal_tim.o(i.TIM_ETR_SetConfig)
    i.TIM_ITRx_SetConfig                     0x080045b2   Section        0  stm32f1xx_hal_tim.o(i.TIM_ITRx_SetConfig)
    TIM_ITRx_SetConfig                       0x080045b3   Thumb Code    16  stm32f1xx_hal_tim.o(i.TIM_ITRx_SetConfig)
    i.TIM_OC1_SetConfig                      0x080045c4   Section        0  stm32f1xx_hal_tim.o(i.TIM_OC1_SetConfig)
    TIM_OC1_SetConfig                        0x080045c5   Thumb Code    96  stm32f1xx_hal_tim.o(i.TIM_OC1_SetConfig)
    i.TIM_OC2_SetConfig                      0x0800462c   Section        0  stm32f1xx_hal_tim.o(i.TIM_OC2_SetConfig)
    i.TIM_OC3_SetConfig                      0x080046a0   Section        0  stm32f1xx_hal_tim.o(i.TIM_OC3_SetConfig)
    TIM_OC3_SetConfig                        0x080046a1   Thumb Code   104  stm32f1xx_hal_tim.o(i.TIM_OC3_SetConfig)
    i.TIM_OC4_SetConfig                      0x08004710   Section        0  stm32f1xx_hal_tim.o(i.TIM_OC4_SetConfig)
    TIM_OC4_SetConfig                        0x08004711   Thumb Code    74  stm32f1xx_hal_tim.o(i.TIM_OC4_SetConfig)
    i.TIM_TI1_ConfigInputStage               0x08004764   Section        0  stm32f1xx_hal_tim.o(i.TIM_TI1_ConfigInputStage)
    TIM_TI1_ConfigInputStage                 0x08004765   Thumb Code    34  stm32f1xx_hal_tim.o(i.TIM_TI1_ConfigInputStage)
    i.TIM_TI2_ConfigInputStage               0x08004786   Section        0  stm32f1xx_hal_tim.o(i.TIM_TI2_ConfigInputStage)
    TIM_TI2_ConfigInputStage                 0x08004787   Thumb Code    36  stm32f1xx_hal_tim.o(i.TIM_TI2_ConfigInputStage)
    i.Turn_Angle                             0x080047ac   Section        0  turn.o(i.Turn_Angle)
    i.Turn_Angle360                          0x0800485c   Section        0  turn.o(i.Turn_Angle360)
    i.Turn_Angle_Relative                    0x080048e4   Section        0  turn.o(i.Turn_Angle_Relative)
    i.UART4_IRQHandler                       0x0800492c   Section        0  bsp_linefollower.o(i.UART4_IRQHandler)
    i.UART5_IRQHandler                       0x08004a00   Section        0  bsp_qrscan.o(i.UART5_IRQHandler)
    i.UART_DMAAbortOnError                   0x08004a7c   Section        0  stm32f1xx_hal_uart.o(i.UART_DMAAbortOnError)
    UART_DMAAbortOnError                     0x08004a7d   Thumb Code    16  stm32f1xx_hal_uart.o(i.UART_DMAAbortOnError)
    i.UART_DMAError                          0x08004a8c   Section        0  stm32f1xx_hal_uart.o(i.UART_DMAError)
    UART_DMAError                            0x08004a8d   Thumb Code    74  stm32f1xx_hal_uart.o(i.UART_DMAError)
    i.UART_DMAReceiveCplt                    0x08004ad6   Section        0  stm32f1xx_hal_uart.o(i.UART_DMAReceiveCplt)
    UART_DMAReceiveCplt                      0x08004ad7   Thumb Code    90  stm32f1xx_hal_uart.o(i.UART_DMAReceiveCplt)
    i.UART_DMARxHalfCplt                     0x08004b30   Section        0  stm32f1xx_hal_uart.o(i.UART_DMARxHalfCplt)
    UART_DMARxHalfCplt                       0x08004b31   Thumb Code    26  stm32f1xx_hal_uart.o(i.UART_DMARxHalfCplt)
    i.UART_EndRxTransfer                     0x08004b4a   Section        0  stm32f1xx_hal_uart.o(i.UART_EndRxTransfer)
    UART_EndRxTransfer                       0x08004b4b   Thumb Code    48  stm32f1xx_hal_uart.o(i.UART_EndRxTransfer)
    i.UART_EndTransmit_IT                    0x08004b7a   Section        0  stm32f1xx_hal_uart.o(i.UART_EndTransmit_IT)
    UART_EndTransmit_IT                      0x08004b7b   Thumb Code    26  stm32f1xx_hal_uart.o(i.UART_EndTransmit_IT)
    i.UART_EndTxTransfer                     0x08004b94   Section        0  stm32f1xx_hal_uart.o(i.UART_EndTxTransfer)
    UART_EndTxTransfer                       0x08004b95   Thumb Code    18  stm32f1xx_hal_uart.o(i.UART_EndTxTransfer)
    i.UART_Receive_IT                        0x08004ba6   Section        0  stm32f1xx_hal_uart.o(i.UART_Receive_IT)
    UART_Receive_IT                          0x08004ba7   Thumb Code   188  stm32f1xx_hal_uart.o(i.UART_Receive_IT)
    i.UART_SetConfig                         0x08004c64   Section        0  stm32f1xx_hal_uart.o(i.UART_SetConfig)
    UART_SetConfig                           0x08004c65   Thumb Code   178  stm32f1xx_hal_uart.o(i.UART_SetConfig)
    i.UART_Start_Receive_DMA                 0x08004d1c   Section        0  stm32f1xx_hal_uart.o(i.UART_Start_Receive_DMA)
    i.UART_Transmit_IT                       0x08004d90   Section        0  stm32f1xx_hal_uart.o(i.UART_Transmit_IT)
    UART_Transmit_IT                         0x08004d91   Thumb Code    94  stm32f1xx_hal_uart.o(i.UART_Transmit_IT)
    i.UART_WaitOnFlagUntilTimeout            0x08004dee   Section        0  stm32f1xx_hal_uart.o(i.UART_WaitOnFlagUntilTimeout)
    UART_WaitOnFlagUntilTimeout              0x08004def   Thumb Code   100  stm32f1xx_hal_uart.o(i.UART_WaitOnFlagUntilTimeout)
    i.USART2_IRQHandler                      0x08004e54   Section        0  openmv.o(i.USART2_IRQHandler)
    i.USART3_IRQHandler                      0x08004f18   Section        0  bsp_imu.o(i.USART3_IRQHandler)
    i.UsageFault_Handler                     0x08005038   Section        0  stm32f1xx_it.o(i.UsageFault_Handler)
    i.__NVIC_SetPriority                     0x0800503a   Section        0  stm32f1xx_hal_cortex.o(i.__NVIC_SetPriority)
    __NVIC_SetPriority                       0x0800503b   Thumb Code    32  stm32f1xx_hal_cortex.o(i.__NVIC_SetPriority)
    i.__scatterload_copy                     0x0800505a   Section       14  handlers.o(i.__scatterload_copy)
    i.__scatterload_null                     0x08005068   Section        2  handlers.o(i.__scatterload_null)
    i.__scatterload_zeroinit                 0x0800506a   Section       14  handlers.o(i.__scatterload_zeroinit)
    i.actions                                0x08005078   Section        0  motion.o(i.actions)
    i.angle_write                            0x08005148   Section        0  bsp_servo_iic.o(i.angle_write)
    i.back                                   0x08005180   Section        0  barrier.o(i.back)
    i.buzzer_off                             0x08005210   Section        0  bsp_buzzer.o(i.buzzer_off)
    i.buzzer_on                              0x08005220   Section        0  bsp_buzzer.o(i.buzzer_on)
    i.check_BW                               0x08005230   Section        0  bsp_qrscan.o(i.check_BW)
    i.deal_arrive                            0x080052a8   Section        0  map.o(i.deal_arrive)
    i.delay_init                             0x080053e8   Section        0  bsp_delay.o(i.delay_init)
    i.delay_ms                               0x08005410   Section        0  bsp_delay.o(i.delay_ms)
    i.delay_us                               0x08005448   Section        0  bsp_delay.o(i.delay_us)
    i.door                                   0x08005480   Section        0  barrier.o(i.door)
    i.floor                                  0x08005714   Section        0  floor.o(i.floor)
    i.getAngleZ                              0x080057f0   Section        0  turn.o(i.getAngleZ)
    i.getNextConnectNode                     0x0800582c   Section        0  map.o(i.getNextConnectNode)
    i.gradual_cal                            0x08005864   Section        0  speed_ctrl.o(i.gradual_cal)
    i.ignore_node                            0x080058cc   Section        0  barrier.o(i.ignore_node)
    i.iic_ack                                0x080058e0   Section        0  bsp_servo_iic.o(i.iic_ack)
    i.iic_not_ack                            0x08005930   Section        0  bsp_servo_iic.o(i.iic_not_ack)
    i.iic_read_byte                          0x08005980   Section        0  bsp_servo_iic.o(i.iic_read_byte)
    i.iic_send_byte                          0x080059ec   Section        0  bsp_servo_iic.o(i.iic_send_byte)
    i.iic_start                              0x08005a50   Section        0  bsp_servo_iic.o(i.iic_start)
    i.iic_stop                               0x08005aa0   Section        0  bsp_servo_iic.o(i.iic_stop)
    i.iic_wait_ack                           0x08005af0   Section        0  bsp_servo_iic.o(i.iic_wait_ack)
    i.imu_receive_init                       0x08005b58   Section        0  bsp_imu.o(i.imu_receive_init)
    i.incremental_PID                        0x08005b78   Section        0  pid.o(i.incremental_PID)
    i.main                                   0x08005c40   Section        0  main.o(i.main)
    i.mapInit                                0x08005d70   Section        0  map.o(i.mapInit)
    i.map_function                           0x08005dd4   Section        0  map.o(i.map_function)
    i.motor_pid_clear                        0x08005e58   Section        0  pid.o(i.motor_pid_clear)
    i.motor_pwm_enable                       0x08005eb4   Section        0  bsp_motor.o(i.motor_pwm_enable)
    i.motor_set_pwm                          0x08005f34   Section        0  bsp_motor.o(i.motor_set_pwm)
    i.mpuZreset                              0x08005fdc   Section        0  turn.o(i.mpuZreset)
    i.need2turn                              0x08005fec   Section        0  turn.o(i.need2turn)
    i.openmv_receive_init                    0x08006020   Section        0  openmv.o(i.openmv_receive_init)
    i.pca_init                               0x08006040   Section        0  bsp_servo_iic.o(i.pca_init)
    i.pca_read                               0x0800605e   Section        0  bsp_servo_iic.o(i.pca_read)
    i.pca_setfreq                            0x08006098   Section        0  bsp_servo_iic.o(i.pca_setfreq)
    i.pca_setpwm                             0x08006148   Section        0  bsp_servo_iic.o(i.pca_setpwm)
    i.pca_write                              0x08006190   Section        0  bsp_servo_iic.o(i.pca_write)
    i.pid_init                               0x080061c0   Section        0  pid.o(i.pid_init)
    i.pid_mode_switch                        0x08006264   Section        0  tim_it.o(i.pid_mode_switch)
    i.positional_PID                         0x08006390   Section        0  pid.o(i.positional_PID)
    i.powCal                                 0x08006444   Section        0  scaner.o(i.powCal)
    i.read_encoder                           0x0800658c   Section        0  bsp_motor.o(i.read_encoder)
    i.route_reset                            0x080065d8   Section        0  barrier.o(i.route_reset)
    i.runWithAngle                           0x080067d4   Section        0  turn.o(i.runWithAngle)
    i.undermou                               0x08006850   Section        0  barrier.o(i.undermou)
    i.view                                   0x080068d4   Section        0  barrier.o(i.view)
    i.view1                                  0x08006998   Section        0  barrier.o(i.view1)
    .constdata                               0x080069cc   Section       16  system_stm32f1xx.o(.constdata)
    .constdata                               0x080069dc   Section        8  system_stm32f1xx.o(.constdata)
    .constdata                               0x080069e4   Section       64  scaner.o(.constdata)
    .constdata                               0x08006a24   Section       28  tim_it.o(.constdata)
    <Data1>                                  0x08006a24   Data          28  tim_it.o(.constdata)
    .data                                    0x20000000   Section        4  system_stm32f1xx.o(.data)
    .data                                    0x20000004   Section        8  bsp_delay.o(.data)
    fac_us                                   0x20000004   Data           1  bsp_delay.o(.data)
    fac_ms                                   0x20000008   Data           4  bsp_delay.o(.data)
    .data                                    0x2000000c   Section        1  bsp_imu.o(.data)
    .data                                    0x2000000d   Section        6  bsp_linefollower.o(.data)
    data_cnt                                 0x2000000d   Data           1  bsp_linefollower.o(.data)
    state                                    0x2000000e   Data           1  bsp_linefollower.o(.data)
    .data                                    0x20000014   Section       12  bsp_qrscan.o(.data)
    .data                                    0x20000020   Section       12  openmv.o(.data)
    mv_state                                 0x20000020   Data           1  openmv.o(.data)
    openmv                                   0x20000024   Data           4  openmv.o(.data)
    .data                                    0x2000002c   Section       44  speed_ctrl.o(.data)
    .data                                    0x20000058   Section        8  turn.o(.data)
    .data                                    0x20000060   Section      108  map.o(.data)
    _flag                                    0x20000060   Data           1  map.o(.data)
    mul2sing                                 0x20000064   Data           2  map.o(.data)
    sing2mul                                 0x20000066   Data           2  map.o(.data)
    .data                                    0x200000cc   Section      100  map.o(.data)
    .data                                    0x20000130   Section      100  map.o(.data)
    .data                                    0x20000194   Section      100  map.o(.data)
    .data                                    0x200001f8   Section      100  map.o(.data)
    .data                                    0x2000025c   Section        1  barrier.o(.data)
    flag                                     0x2000025c   Data           1  barrier.o(.data)
    .data                                    0x20000260   Section     2360  map_message.o(.data)
    .data                                    0x20000b98   Section       50  map_message.o(.data)
    .data                                    0x20000bca   Section       50  map_message.o(.data)
    .data                                    0x20000bfc   Section        8  scaner.o(.data)
    .data                                    0x20000c04   Section       12  tim_it.o(.data)
    tim6_tick                                0x20000c08   Data           4  tim_it.o(.data)
    .data                                    0x20000c10   Section       12  stm32f1xx_hal.o(.data)
    .bss                                     0x20000c1c   Section      504  tim.o(.bss)
    .bss                                     0x20000e14   Section      408  usart.o(.bss)
    .bss                                     0x20000fac   Section      220  bsp_imu.o(.bss)
    .bss                                     0x20001088   Section       20  bsp_linefollower.o(.bss)
    RxBuffer                                 0x20001088   Data          20  bsp_linefollower.o(.bss)
    .bss                                     0x2000109c   Section       12  bsp_qrscan.o(.bss)
    .bss                                     0x200010a8   Section       12  speed_ctrl.o(.bss)
    .bss                                     0x200010b4   Section       12  speed_ctrl.o(.bss)
    .bss                                     0x200010c0   Section       44  map.o(.bss)
    .bss                                     0x200010ec   Section       12  scaner.o(.bss)
    .bss                                     0x200010f8   Section      208  pid.o(.bss)
    .bss                                     0x200011c8   Section       28  pid.o(.bss)
    .bss                                     0x200011e4   Section       28  pid.o(.bss)
    .bss                                     0x20001200   Section       28  pid.o(.bss)
    STACK                                    0x20001220   Section     2048  startup_stm32f103xe.o(STACK)

    Global Symbols

    Symbol Name                              Value     Ov Type        Size  Object(Section)

    BuildAttributes$$THM_ISAv4$P$D$K$B$S$PE$A:L22UL41UL21$X:L11$S22US41US21$IEEE1$IW$USESV6$~STKCKD$USESV7$~SHL$OTIME$ROPI$IEEEX$EBA8$MICROLIB$REQ8$PRES8$EABIv2 0x00000000   Number         0  anon$$obj.o ABSOLUTE
    __ARM_use_no_argv                        0x00000000   Number         0  main.o ABSOLUTE
    __use_no_errno                           0x00000000   Number         0  useno.o ABSOLUTE
    __use_no_exception_handling              0x00000000   Number         0  useno.o ABSOLUTE
    __use_no_fp                              0x00000000   Number         0  useno.o ABSOLUTE
    __use_no_heap                            0x00000000   Number         0  useno.o ABSOLUTE
    __use_no_heap_region                     0x00000000   Number         0  useno.o ABSOLUTE
    __use_no_semihosting                     0x00000000   Number         0  useno.o ABSOLUTE
    __use_no_semihosting_swi                 0x00000000   Number         0  useno.o ABSOLUTE
    __use_no_signal_handling                 0x00000000   Number         0  useno.o ABSOLUTE
    _printf_a                                0x00000000   Number         0  stubs.o ABSOLUTE
    _printf_c                                0x00000000   Number         0  stubs.o ABSOLUTE
    _printf_charcount                        0x00000000   Number         0  stubs.o ABSOLUTE
    _printf_d                                0x00000000   Number         0  stubs.o ABSOLUTE
    _printf_e                                0x00000000   Number         0  stubs.o ABSOLUTE
    _printf_f                                0x00000000   Number         0  stubs.o ABSOLUTE
    _printf_flags                            0x00000000   Number         0  stubs.o ABSOLUTE
    _printf_fp_dec                           0x00000000   Number         0  stubs.o ABSOLUTE
    _printf_fp_hex                           0x00000000   Number         0  stubs.o ABSOLUTE
    _printf_g                                0x00000000   Number         0  stubs.o ABSOLUTE
    _printf_i                                0x00000000   Number         0  stubs.o ABSOLUTE
    _printf_int_dec                          0x00000000   Number         0  stubs.o ABSOLUTE
    _printf_l                                0x00000000   Number         0  stubs.o ABSOLUTE
    _printf_lc                               0x00000000   Number         0  stubs.o ABSOLUTE
    _printf_ll                               0x00000000   Number         0  stubs.o ABSOLUTE
    _printf_lld                              0x00000000   Number         0  stubs.o ABSOLUTE
    _printf_lli                              0x00000000   Number         0  stubs.o ABSOLUTE
    _printf_llo                              0x00000000   Number         0  stubs.o ABSOLUTE
    _printf_llu                              0x00000000   Number         0  stubs.o ABSOLUTE
    _printf_llx                              0x00000000   Number         0  stubs.o ABSOLUTE
    _printf_longlong_dec                     0x00000000   Number         0  stubs.o ABSOLUTE
    _printf_longlong_hex                     0x00000000   Number         0  stubs.o ABSOLUTE
    _printf_longlong_oct                     0x00000000   Number         0  stubs.o ABSOLUTE
    _printf_ls                               0x00000000   Number         0  stubs.o ABSOLUTE
    _printf_mbtowc                           0x00000000   Number         0  stubs.o ABSOLUTE
    _printf_n                                0x00000000   Number         0  stubs.o ABSOLUTE
    _printf_o                                0x00000000   Number         0  stubs.o ABSOLUTE
    _printf_p                                0x00000000   Number         0  stubs.o ABSOLUTE
    _printf_percent                          0x00000000   Number         0  stubs.o ABSOLUTE
    _printf_pre_padding                      0x00000000   Number         0  stubs.o ABSOLUTE
    _printf_return_value                     0x00000000   Number         0  stubs.o ABSOLUTE
    _printf_s                                0x00000000   Number         0  stubs.o ABSOLUTE
    _printf_sizespec                         0x00000000   Number         0  stubs.o ABSOLUTE
    _printf_str                              0x00000000   Number         0  stubs.o ABSOLUTE
    _printf_truncate_signed                  0x00000000   Number         0  stubs.o ABSOLUTE
    _printf_truncate_unsigned                0x00000000   Number         0  stubs.o ABSOLUTE
    _printf_u                                0x00000000   Number         0  stubs.o ABSOLUTE
    _printf_wc                               0x00000000   Number         0  stubs.o ABSOLUTE
    _printf_wctomb                           0x00000000   Number         0  stubs.o ABSOLUTE
    _printf_widthprec                        0x00000000   Number         0  stubs.o ABSOLUTE
    _printf_x                                0x00000000   Number         0  stubs.o ABSOLUTE
    __arm_fini_                               - Undefined Weak Reference
    __cpp_initialize__aeabi_                  - Undefined Weak Reference
    __cxa_finalize                            - Undefined Weak Reference
    _clock_init                               - Undefined Weak Reference
    _microlib_exit                            - Undefined Weak Reference
    __Vectors_Size                           0x00000130   Number         0  startup_stm32f103xe.o ABSOLUTE
    __Vectors                                0x08000000   Data           4  startup_stm32f103xe.o(RESET)
    __Vectors_End                            0x08000130   Data           0  startup_stm32f103xe.o(RESET)
    __main                                   0x08000131   Thumb Code     0  entry.o(.ARM.Collect$$$$00000000)
    _main_stk                                0x08000131   Thumb Code     0  entry2.o(.ARM.Collect$$$$00000001)
    _main_scatterload                        0x08000135   Thumb Code     0  entry5.o(.ARM.Collect$$$$00000004)
    __main_after_scatterload                 0x08000139   Thumb Code     0  entry5.o(.ARM.Collect$$$$00000004)
    _main_clock                              0x08000139   Thumb Code     0  entry7b.o(.ARM.Collect$$$$00000008)
    _main_cpp_init                           0x08000139   Thumb Code     0  entry8b.o(.ARM.Collect$$$$0000000A)
    _main_init                               0x08000139   Thumb Code     0  entry9a.o(.ARM.Collect$$$$0000000B)
    __rt_lib_shutdown_fini                   0x08000141   Thumb Code     0  entry12b.o(.ARM.Collect$$$$0000000E)
    __rt_final_cpp                           0x08000145   Thumb Code     0  entry10a.o(.ARM.Collect$$$$0000000F)
    __rt_final_exit                          0x08000145   Thumb Code     0  entry11a.o(.ARM.Collect$$$$00000011)
    Reset_Handler                            0x08000149   Thumb Code     8  startup_stm32f103xe.o(.text)
    SVC_Handler                              0x0800015b   Thumb Code     2  startup_stm32f103xe.o(.text)
    PendSV_Handler                           0x0800015f   Thumb Code     2  startup_stm32f103xe.o(.text)
    ADC1_2_IRQHandler                        0x08000163   Thumb Code     0  startup_stm32f103xe.o(.text)
    ADC3_IRQHandler                          0x08000163   Thumb Code     0  startup_stm32f103xe.o(.text)
    CAN1_RX1_IRQHandler                      0x08000163   Thumb Code     0  startup_stm32f103xe.o(.text)
    CAN1_SCE_IRQHandler                      0x08000163   Thumb Code     0  startup_stm32f103xe.o(.text)
    DMA1_Channel1_IRQHandler                 0x08000163   Thumb Code     0  startup_stm32f103xe.o(.text)
    DMA1_Channel2_IRQHandler                 0x08000163   Thumb Code     0  startup_stm32f103xe.o(.text)
    DMA1_Channel4_IRQHandler                 0x08000163   Thumb Code     0  startup_stm32f103xe.o(.text)
    DMA1_Channel5_IRQHandler                 0x08000163   Thumb Code     0  startup_stm32f103xe.o(.text)
    DMA1_Channel7_IRQHandler                 0x08000163   Thumb Code     0  startup_stm32f103xe.o(.text)
    DMA2_Channel1_IRQHandler                 0x08000163   Thumb Code     0  startup_stm32f103xe.o(.text)
    DMA2_Channel2_IRQHandler                 0x08000163   Thumb Code     0  startup_stm32f103xe.o(.text)
    DMA2_Channel3_IRQHandler                 0x08000163   Thumb Code     0  startup_stm32f103xe.o(.text)
    DMA2_Channel4_5_IRQHandler               0x08000163   Thumb Code     0  startup_stm32f103xe.o(.text)
    EXTI0_IRQHandler                         0x08000163   Thumb Code     0  startup_stm32f103xe.o(.text)
    EXTI15_10_IRQHandler                     0x08000163   Thumb Code     0  startup_stm32f103xe.o(.text)
    EXTI1_IRQHandler                         0x08000163   Thumb Code     0  startup_stm32f103xe.o(.text)
    EXTI2_IRQHandler                         0x08000163   Thumb Code     0  startup_stm32f103xe.o(.text)
    EXTI3_IRQHandler                         0x08000163   Thumb Code     0  startup_stm32f103xe.o(.text)
    EXTI4_IRQHandler                         0x08000163   Thumb Code     0  startup_stm32f103xe.o(.text)
    EXTI9_5_IRQHandler                       0x08000163   Thumb Code     0  startup_stm32f103xe.o(.text)
    FLASH_IRQHandler                         0x08000163   Thumb Code     0  startup_stm32f103xe.o(.text)
    FSMC_IRQHandler                          0x08000163   Thumb Code     0  startup_stm32f103xe.o(.text)
    I2C1_ER_IRQHandler                       0x08000163   Thumb Code     0  startup_stm32f103xe.o(.text)
    I2C1_EV_IRQHandler                       0x08000163   Thumb Code     0  startup_stm32f103xe.o(.text)
    I2C2_ER_IRQHandler                       0x08000163   Thumb Code     0  startup_stm32f103xe.o(.text)
    I2C2_EV_IRQHandler                       0x08000163   Thumb Code     0  startup_stm32f103xe.o(.text)
    PVD_IRQHandler                           0x08000163   Thumb Code     0  startup_stm32f103xe.o(.text)
    RCC_IRQHandler                           0x08000163   Thumb Code     0  startup_stm32f103xe.o(.text)
    RTC_Alarm_IRQHandler                     0x08000163   Thumb Code     0  startup_stm32f103xe.o(.text)
    RTC_IRQHandler                           0x08000163   Thumb Code     0  startup_stm32f103xe.o(.text)
    SDIO_IRQHandler                          0x08000163   Thumb Code     0  startup_stm32f103xe.o(.text)
    SPI1_IRQHandler                          0x08000163   Thumb Code     0  startup_stm32f103xe.o(.text)
    SPI2_IRQHandler                          0x08000163   Thumb Code     0  startup_stm32f103xe.o(.text)
    SPI3_IRQHandler                          0x08000163   Thumb Code     0  startup_stm32f103xe.o(.text)
    TAMPER_IRQHandler                        0x08000163   Thumb Code     0  startup_stm32f103xe.o(.text)
    TIM1_BRK_IRQHandler                      0x08000163   Thumb Code     0  startup_stm32f103xe.o(.text)
    TIM1_CC_IRQHandler                       0x08000163   Thumb Code     0  startup_stm32f103xe.o(.text)
    TIM1_TRG_COM_IRQHandler                  0x08000163   Thumb Code     0  startup_stm32f103xe.o(.text)
    TIM1_UP_IRQHandler                       0x08000163   Thumb Code     0  startup_stm32f103xe.o(.text)
    TIM2_IRQHandler                          0x08000163   Thumb Code     0  startup_stm32f103xe.o(.text)
    TIM3_IRQHandler                          0x08000163   Thumb Code     0  startup_stm32f103xe.o(.text)
    TIM4_IRQHandler                          0x08000163   Thumb Code     0  startup_stm32f103xe.o(.text)
    TIM5_IRQHandler                          0x08000163   Thumb Code     0  startup_stm32f103xe.o(.text)
    TIM7_IRQHandler                          0x08000163   Thumb Code     0  startup_stm32f103xe.o(.text)
    TIM8_BRK_IRQHandler                      0x08000163   Thumb Code     0  startup_stm32f103xe.o(.text)
    TIM8_CC_IRQHandler                       0x08000163   Thumb Code     0  startup_stm32f103xe.o(.text)
    TIM8_TRG_COM_IRQHandler                  0x08000163   Thumb Code     0  startup_stm32f103xe.o(.text)
    TIM8_UP_IRQHandler                       0x08000163   Thumb Code     0  startup_stm32f103xe.o(.text)
    USART1_IRQHandler                        0x08000163   Thumb Code     0  startup_stm32f103xe.o(.text)
    USBWakeUp_IRQHandler                     0x08000163   Thumb Code     0  startup_stm32f103xe.o(.text)
    USB_HP_CAN1_TX_IRQHandler                0x08000163   Thumb Code     0  startup_stm32f103xe.o(.text)
    USB_LP_CAN1_RX0_IRQHandler               0x08000163   Thumb Code     0  startup_stm32f103xe.o(.text)
    WWDG_IRQHandler                          0x08000163   Thumb Code     0  startup_stm32f103xe.o(.text)
    __aeabi_llsr                             0x0800016d   Thumb Code    32  llushr.o(.text)
    _ll_ushift_r                             0x0800016d   Thumb Code     0  llushr.o(.text)
    __aeabi_memcpy                           0x0800018d   Thumb Code    36  memcpya.o(.text)
    __aeabi_memcpy4                          0x0800018d   Thumb Code     0  memcpya.o(.text)
    __aeabi_memcpy8                          0x0800018d   Thumb Code     0  memcpya.o(.text)
    __aeabi_memset                           0x080001b1   Thumb Code    14  memseta.o(.text)
    __aeabi_memset4                          0x080001b1   Thumb Code     0  memseta.o(.text)
    __aeabi_memset8                          0x080001b1   Thumb Code     0  memseta.o(.text)
    __aeabi_memclr                           0x080001bf   Thumb Code     4  memseta.o(.text)
    __aeabi_memclr4                          0x080001bf   Thumb Code     0  memseta.o(.text)
    __aeabi_memclr8                          0x080001bf   Thumb Code     0  memseta.o(.text)
    _memset$wrapper                          0x080001c3   Thumb Code    18  memseta.o(.text)
    __aeabi_fadd                             0x080001d5   Thumb Code   164  fadd.o(.text)
    __aeabi_fsub                             0x08000279   Thumb Code     6  fadd.o(.text)
    __aeabi_frsub                            0x0800027f   Thumb Code     6  fadd.o(.text)
    __aeabi_fmul                             0x08000285   Thumb Code   100  fmul.o(.text)
    __aeabi_fdiv                             0x080002e9   Thumb Code   124  fdiv.o(.text)
    __ARM_scalbnf                            0x08000365   Thumb Code    24  fscalb.o(.text)
    scalbnf                                  0x08000365   Thumb Code     0  fscalb.o(.text)
    __aeabi_dadd                             0x0800037d   Thumb Code   322  dadd.o(.text)
    __aeabi_dsub                             0x080004bf   Thumb Code     6  dadd.o(.text)
    __aeabi_drsub                            0x080004c5   Thumb Code     6  dadd.o(.text)
    __aeabi_dmul                             0x080004cb   Thumb Code   228  dmul.o(.text)
    __aeabi_ddiv                             0x080005af   Thumb Code   222  ddiv.o(.text)
    __ARM_scalbn                             0x0800068d   Thumb Code    46  dscalb.o(.text)
    scalbn                                   0x0800068d   Thumb Code     0  dscalb.o(.text)
    __aeabi_i2f                              0x080006bb   Thumb Code    18  fflti.o(.text)
    __aeabi_ui2f                             0x080006cd   Thumb Code    10  ffltui.o(.text)
    __aeabi_i2d                              0x080006d7   Thumb Code    34  dflti.o(.text)
    __aeabi_ui2d                             0x080006f9   Thumb Code    26  dfltui.o(.text)
    __aeabi_f2iz                             0x08000713   Thumb Code    50  ffixi.o(.text)
    __aeabi_d2uiz                            0x08000745   Thumb Code    50  dfixui.o(.text)
    __aeabi_f2d                              0x08000777   Thumb Code    38  f2d.o(.text)
    __aeabi_cdcmpeq                          0x0800079d   Thumb Code     0  cdcmple.o(.text)
    __aeabi_cdcmple                          0x0800079d   Thumb Code    48  cdcmple.o(.text)
    __aeabi_cdrcmple                         0x080007cd   Thumb Code    48  cdrcmple.o(.text)
    __aeabi_d2f                              0x080007fd   Thumb Code    56  d2f.o(.text)
    __aeabi_cfcmpeq                          0x08000835   Thumb Code     0  cfcmple.o(.text)
    __aeabi_cfcmple                          0x08000835   Thumb Code    20  cfcmple.o(.text)
    __aeabi_cfrcmple                         0x08000849   Thumb Code    20  cfrcmple.o(.text)
    __aeabi_llsl                             0x0800085d   Thumb Code    30  llshl.o(.text)
    _ll_shift_l                              0x0800085d   Thumb Code     0  llshl.o(.text)
    __aeabi_lasr                             0x0800087b   Thumb Code    36  llsshr.o(.text)
    _ll_sshift_r                             0x0800087b   Thumb Code     0  llsshr.o(.text)
    __I$use$fp                               0x0800089f   Thumb Code     0  iusefp.o(.text)
    _float_round                             0x0800089f   Thumb Code    18  fepilogue.o(.text)
    _float_epilogue                          0x080008b1   Thumb Code    92  fepilogue.o(.text)
    _double_round                            0x0800090d   Thumb Code    30  depilogue.o(.text)
    _double_epilogue                         0x0800092b   Thumb Code   156  depilogue.o(.text)
    __scatterload                            0x080009c9   Thumb Code    28  init.o(.text)
    __scatterload_rt2                        0x080009c9   Thumb Code     0  init.o(.text)
    __decompress                             0x080009ed   Thumb Code     0  __dczerorl2.o(.text)
    __decompress1                            0x080009ed   Thumb Code    86  __dczerorl2.o(.text)
    AdCircle                                 0x08000a45   Thumb Code    30  turn.o(i.AdCircle)
    Anti_shake                               0x08000a69   Thumb Code    32  barrier.o(i.Anti_shake)
    Barrier_Bridge                           0x08000a8d   Thumb Code   230  barrier.o(i.Barrier_Bridge)
    Barrier_Down_HighMountain                0x08000ba9   Thumb Code   120  barrier.o(i.Barrier_Down_HighMountain)
    Barrier_HighMountain                     0x08000c45   Thumb Code   486  barrier.o(i.Barrier_HighMountain)
    Barrier_Hill                             0x08000e79   Thumb Code   116  barrier.o(i.Barrier_Hill)
    Barrier_WavedPlate                       0x08000f0d   Thumb Code    50  barrier.o(i.Barrier_WavedPlate)
    BusFault_Handler                         0x08000f4d   Thumb Code     2  stm32f1xx_it.o(i.BusFault_Handler)
    CarBrake                                 0x08000f51   Thumb Code    18  speed_ctrl.o(i.CarBrake)
    Cross                                    0x08000f69   Thumb Code  1324  map.o(i.Cross)
    DMA1_Channel3_IRQHandler                 0x0800149d   Thumb Code     2  stm32f1xx_it.o(i.DMA1_Channel3_IRQHandler)
    DMA1_Channel6_IRQHandler                 0x080014a1   Thumb Code     6  stm32f1xx_it.o(i.DMA1_Channel6_IRQHandler)
    DebugMon_Handler                         0x080014d9   Thumb Code     2  stm32f1xx_it.o(i.DebugMon_Handler)
    Error_Handler                            0x080014db   Thumb Code    22  main.o(i.Error_Handler)
    Go_Line                                  0x080014f1   Thumb Code    84  scaner.o(i.Go_Line)
    HAL_DMA_Abort                            0x08001561   Thumb Code    70  stm32f1xx_hal_dma.o(i.HAL_DMA_Abort)
    HAL_DMA_Abort_IT                         0x080015a9   Thumb Code   328  stm32f1xx_hal_dma.o(i.HAL_DMA_Abort_IT)
    HAL_DMA_IRQHandler                       0x080016f9   Thumb Code   640  stm32f1xx_hal_dma.o(i.HAL_DMA_IRQHandler)
    HAL_DMA_Init                             0x08001999   Thumb Code   116  stm32f1xx_hal_dma.o(i.HAL_DMA_Init)
    HAL_DMA_Start_IT                         0x08001a19   Thumb Code   116  stm32f1xx_hal_dma.o(i.HAL_DMA_Start_IT)
    HAL_Delay                                0x08001a8d   Thumb Code    32  stm32f1xx_hal.o(i.HAL_Delay)
    HAL_GPIO_Init                            0x08001ab1   Thumb Code   492  stm32f1xx_hal_gpio.o(i.HAL_GPIO_Init)
    HAL_GPIO_ReadPin                         0x08001cc5   Thumb Code    14  stm32f1xx_hal_gpio.o(i.HAL_GPIO_ReadPin)
    HAL_GPIO_TogglePin                       0x08001cd3   Thumb Code    16  stm32f1xx_hal_gpio.o(i.HAL_GPIO_TogglePin)
    HAL_GPIO_WritePin                        0x08001ce3   Thumb Code    14  stm32f1xx_hal_gpio.o(i.HAL_GPIO_WritePin)
    HAL_GetTick                              0x08001cf1   Thumb Code     6  stm32f1xx_hal.o(i.HAL_GetTick)
    HAL_IncTick                              0x08001cfd   Thumb Code    12  stm32f1xx_hal.o(i.HAL_IncTick)
    HAL_Init                                 0x08001d0d   Thumb Code    32  stm32f1xx_hal.o(i.HAL_Init)
    HAL_InitTick                             0x08001d31   Thumb Code    58  stm32f1xx_hal.o(i.HAL_InitTick)
    HAL_MspInit                              0x08001d75   Thumb Code    62  stm32f1xx_hal_msp.o(i.HAL_MspInit)
    HAL_NVIC_EnableIRQ                       0x08001dbd   Thumb Code    26  stm32f1xx_hal_cortex.o(i.HAL_NVIC_EnableIRQ)
    HAL_NVIC_SetPriority                     0x08001dd9   Thumb Code    60  stm32f1xx_hal_cortex.o(i.HAL_NVIC_SetPriority)
    HAL_NVIC_SetPriorityGrouping             0x08001e19   Thumb Code    26  stm32f1xx_hal_cortex.o(i.HAL_NVIC_SetPriorityGrouping)
    HAL_RCC_ClockConfig                      0x08001e3d   Thumb Code   318  stm32f1xx_hal_rcc.o(i.HAL_RCC_ClockConfig)
    HAL_RCC_GetHCLKFreq                      0x08001f91   Thumb Code     6  stm32f1xx_hal_rcc.o(i.HAL_RCC_GetHCLKFreq)
    HAL_RCC_GetPCLK1Freq                     0x08001f9d   Thumb Code    22  stm32f1xx_hal_rcc.o(i.HAL_RCC_GetPCLK1Freq)
    HAL_RCC_GetPCLK2Freq                     0x08001fbd   Thumb Code    22  stm32f1xx_hal_rcc.o(i.HAL_RCC_GetPCLK2Freq)
    HAL_RCC_GetSysClockFreq                  0x08001fdd   Thumb Code    82  stm32f1xx_hal_rcc.o(i.HAL_RCC_GetSysClockFreq)
    HAL_RCC_OscConfig                        0x08002051   Thumb Code   882  stm32f1xx_hal_rcc.o(i.HAL_RCC_OscConfig)
    HAL_SYSTICK_Config                       0x080023d5   Thumb Code    40  stm32f1xx_hal_cortex.o(i.HAL_SYSTICK_Config)
    HAL_TIMEx_BreakCallback                  0x080023fd   Thumb Code     2  stm32f1xx_hal_tim_ex.o(i.HAL_TIMEx_BreakCallback)
    HAL_TIMEx_CommutCallback                 0x080023ff   Thumb Code     2  stm32f1xx_hal_tim_ex.o(i.HAL_TIMEx_CommutCallback)
    HAL_TIMEx_ConfigBreakDeadTime            0x08002401   Thumb Code    84  stm32f1xx_hal_tim_ex.o(i.HAL_TIMEx_ConfigBreakDeadTime)
    HAL_TIMEx_MasterConfigSynchronization    0x08002455   Thumb Code   102  stm32f1xx_hal_tim_ex.o(i.HAL_TIMEx_MasterConfigSynchronization)
    HAL_TIM_Base_Init                        0x080024d1   Thumb Code    74  stm32f1xx_hal_tim.o(i.HAL_TIM_Base_Init)
    HAL_TIM_Base_MspInit                     0x0800251d   Thumb Code    96  tim.o(i.HAL_TIM_Base_MspInit)
    HAL_TIM_Base_Start_IT                    0x0800258d   Thumb Code    98  stm32f1xx_hal_tim.o(i.HAL_TIM_Base_Start_IT)
    HAL_TIM_ConfigClockSource                0x08002605   Thumb Code   226  stm32f1xx_hal_tim.o(i.HAL_TIM_ConfigClockSource)
    HAL_TIM_Encoder_Init                     0x080026e7   Thumb Code   176  stm32f1xx_hal_tim.o(i.HAL_TIM_Encoder_Init)
    HAL_TIM_Encoder_MspInit                  0x08002799   Thumb Code   286  tim.o(i.HAL_TIM_Encoder_MspInit)
    HAL_TIM_Encoder_Start                    0x080028d5   Thumb Code   168  stm32f1xx_hal_tim.o(i.HAL_TIM_Encoder_Start)
    HAL_TIM_IC_CaptureCallback               0x0800297d   Thumb Code     2  stm32f1xx_hal_tim.o(i.HAL_TIM_IC_CaptureCallback)
    HAL_TIM_IRQHandler                       0x0800297f   Thumb Code   366  stm32f1xx_hal_tim.o(i.HAL_TIM_IRQHandler)
    HAL_TIM_MspPostInit                      0x08002aed   Thumb Code   106  tim.o(i.HAL_TIM_MspPostInit)
    HAL_TIM_OC_DelayElapsedCallback          0x08002b6d   Thumb Code     2  stm32f1xx_hal_tim.o(i.HAL_TIM_OC_DelayElapsedCallback)
    HAL_TIM_PWM_ConfigChannel                0x08002b6f   Thumb Code   210  stm32f1xx_hal_tim.o(i.HAL_TIM_PWM_ConfigChannel)
    HAL_TIM_PWM_Init                         0x08002c41   Thumb Code    74  stm32f1xx_hal_tim.o(i.HAL_TIM_PWM_Init)
    HAL_TIM_PWM_MspInit                      0x08002c8b   Thumb Code     2  stm32f1xx_hal_tim.o(i.HAL_TIM_PWM_MspInit)
    HAL_TIM_PWM_PulseFinishedCallback        0x08002c8d   Thumb Code     2  stm32f1xx_hal_tim.o(i.HAL_TIM_PWM_PulseFinishedCallback)
    HAL_TIM_PWM_Start                        0x08002c91   Thumb Code   178  stm32f1xx_hal_tim.o(i.HAL_TIM_PWM_Start)
    HAL_TIM_PeriodElapsedCallback            0x08002d59   Thumb Code   560  tim_it.o(i.HAL_TIM_PeriodElapsedCallback)
    HAL_TIM_TriggerCallback                  0x08002fd9   Thumb Code     2  stm32f1xx_hal_tim.o(i.HAL_TIM_TriggerCallback)
    HAL_UARTEx_RxEventCallback               0x08002fdb   Thumb Code     2  stm32f1xx_hal_uart.o(i.HAL_UARTEx_RxEventCallback)
    HAL_UART_DMAStop                         0x08002fdd   Thumb Code    88  stm32f1xx_hal_uart.o(i.HAL_UART_DMAStop)
    HAL_UART_ErrorCallback                   0x08003035   Thumb Code     2  stm32f1xx_hal_uart.o(i.HAL_UART_ErrorCallback)
    HAL_UART_IRQHandler                      0x08003039   Thumb Code   456  stm32f1xx_hal_uart.o(i.HAL_UART_IRQHandler)
    HAL_UART_Init                            0x08003205   Thumb Code   100  stm32f1xx_hal_uart.o(i.HAL_UART_Init)
    HAL_UART_MspInit                         0x08003269   Thumb Code   516  usart.o(i.HAL_UART_MspInit)
    HAL_UART_Receive_DMA                     0x08003499   Thumb Code    46  stm32f1xx_hal_uart.o(i.HAL_UART_Receive_DMA)
    HAL_UART_RxCpltCallback                  0x080034c7   Thumb Code     2  stm32f1xx_hal_uart.o(i.HAL_UART_RxCpltCallback)
    HAL_UART_RxHalfCpltCallback              0x080034c9   Thumb Code     2  stm32f1xx_hal_uart.o(i.HAL_UART_RxHalfCpltCallback)
    HAL_UART_Transmit                        0x080034cb   Thumb Code   190  stm32f1xx_hal_uart.o(i.HAL_UART_Transmit)
    HAL_UART_TxCpltCallback                  0x08003589   Thumb Code     2  stm32f1xx_hal_uart.o(i.HAL_UART_TxCpltCallback)
    HardFault_Handler                        0x0800358b   Thumb Code     2  stm32f1xx_it.o(i.HardFault_Handler)
    LED_on                                   0x0800358d   Thumb Code    10  bsp_led.o(i.LED_on)
    LED_twinkle                              0x0800359d   Thumb Code    10  bsp_led.o(i.LED_twinkle)
    LFB_receive_init                         0x080035ad   Thumb Code    14  bsp_linefollower.o(i.LFB_receive_init)
    LFB_send                                 0x080035c1   Thumb Code    22  bsp_linefollower.o(i.LFB_send)
    MX_DMA_Init                              0x080035e1   Thumb Code    56  dma.o(i.MX_DMA_Init)
    MX_GPIO_Init                             0x0800361d   Thumb Code   258  gpio.o(i.MX_GPIO_Init)
    MX_TIM1_Init                             0x08003731   Thumb Code   240  tim.o(i.MX_TIM1_Init)
    MX_TIM2_Init                             0x08003829   Thumb Code   102  tim.o(i.MX_TIM2_Init)
    MX_TIM3_Init                             0x08003895   Thumb Code   100  tim.o(i.MX_TIM3_Init)
    MX_TIM4_Init                             0x08003901   Thumb Code   100  tim.o(i.MX_TIM4_Init)
    MX_TIM5_Init                             0x0800396d   Thumb Code   100  tim.o(i.MX_TIM5_Init)
    MX_TIM6_Init                             0x080039d9   Thumb Code    62  tim.o(i.MX_TIM6_Init)
    MX_TIM8_Init                             0x08003a21   Thumb Code   240  tim.o(i.MX_TIM8_Init)
    MX_UART4_Init                            0x08003b19   Thumb Code    48  usart.o(i.MX_UART4_Init)
    MX_UART5_Init                            0x08003b51   Thumb Code    48  usart.o(i.MX_UART5_Init)
    MX_USART2_UART_Init                      0x08003b89   Thumb Code    48  usart.o(i.MX_USART2_UART_Init)
    MX_USART3_UART_Init                      0x08003bc1   Thumb Code    48  usart.o(i.MX_USART3_UART_Init)
    MemManage_Handler                        0x08003bf9   Thumb Code     2  stm32f1xx_it.o(i.MemManage_Handler)
    NMI_Handler                              0x08003bfb   Thumb Code     2  stm32f1xx_it.o(i.NMI_Handler)
    QQB_1                                    0x08003bfd   Thumb Code   472  barrier.o(i.QQB_1)
    QR_receive_init                          0x08003e25   Thumb Code    14  bsp_qrscan.o(i.QR_receive_init)
    S_curve                                  0x08003e5d   Thumb Code   192  barrier.o(i.S_curve)
    Shine_o_f                                0x08003f45   Thumb Code    26  bsp_led.o(i.Shine_o_f)
    Shine_off                                0x08003f61   Thumb Code    10  bsp_led.o(i.Shine_off)
    Shine_on                                 0x08003f71   Thumb Code    10  bsp_led.o(i.Shine_on)
    South_Pole                               0x08003f81   Thumb Code   332  barrier.o(i.South_Pole)
    Stage                                    0x08004111   Thumb Code   448  barrier.o(i.Stage)
    Stage_P2                                 0x08004301   Thumb Code   102  barrier.o(i.Stage_P2)
    Sword_Mountain                           0x0800438d   Thumb Code   140  barrier.o(i.Sword_Mountain)
    SysTick_Handler                          0x0800443d   Thumb Code     4  stm32f1xx_it.o(i.SysTick_Handler)
    SystemClock_Config                       0x08004441   Thumb Code    94  main.o(i.SystemClock_Config)
    SystemInit                               0x080044a1   Thumb Code    56  system_stm32f1xx.o(i.SystemInit)
    TIM6_IRQHandler                          0x080044e9   Thumb Code     6  stm32f1xx_it.o(i.TIM6_IRQHandler)
    TIM_Base_SetConfig                       0x080044f5   Thumb Code   124  stm32f1xx_hal_tim.o(i.TIM_Base_SetConfig)
    TIM_CCxChannelCmd                        0x08004585   Thumb Code    26  stm32f1xx_hal_tim.o(i.TIM_CCxChannelCmd)
    TIM_ETR_SetConfig                        0x0800459f   Thumb Code    20  stm32f1xx_hal_tim.o(i.TIM_ETR_SetConfig)
    TIM_OC2_SetConfig                        0x0800462d   Thumb Code   106  stm32f1xx_hal_tim.o(i.TIM_OC2_SetConfig)
    Turn_Angle                               0x080047ad   Thumb Code   150  turn.o(i.Turn_Angle)
    Turn_Angle360                            0x0800485d   Thumb Code   114  turn.o(i.Turn_Angle360)
    Turn_Angle_Relative                      0x080048e5   Thumb Code    54  turn.o(i.Turn_Angle_Relative)
    UART4_IRQHandler                         0x0800492d   Thumb Code   192  bsp_linefollower.o(i.UART4_IRQHandler)
    UART5_IRQHandler                         0x08004a01   Thumb Code   110  bsp_qrscan.o(i.UART5_IRQHandler)
    UART_Start_Receive_DMA                   0x08004d1d   Thumb Code   102  stm32f1xx_hal_uart.o(i.UART_Start_Receive_DMA)
    USART2_IRQHandler                        0x08004e55   Thumb Code   182  openmv.o(i.USART2_IRQHandler)
    USART3_IRQHandler                        0x08004f19   Thumb Code   262  bsp_imu.o(i.USART3_IRQHandler)
    UsageFault_Handler                       0x08005039   Thumb Code     2  stm32f1xx_it.o(i.UsageFault_Handler)
    __scatterload_copy                       0x0800505b   Thumb Code    14  handlers.o(i.__scatterload_copy)
    __scatterload_null                       0x08005069   Thumb Code     2  handlers.o(i.__scatterload_null)
    __scatterload_zeroinit                   0x0800506b   Thumb Code    14  handlers.o(i.__scatterload_zeroinit)
    actions                                  0x08005079   Thumb Code   206  motion.o(i.actions)
    angle_write                              0x08005149   Thumb Code    44  bsp_servo_iic.o(i.angle_write)
    back                                     0x08005181   Thumb Code   112  barrier.o(i.back)
    buzzer_off                               0x08005211   Thumb Code    10  bsp_buzzer.o(i.buzzer_off)
    buzzer_on                                0x08005221   Thumb Code    10  bsp_buzzer.o(i.buzzer_on)
    check_BW                                 0x08005231   Thumb Code   116  bsp_qrscan.o(i.check_BW)
    deal_arrive                              0x080052a9   Thumb Code   308  map.o(i.deal_arrive)
    delay_init                               0x080053e9   Thumb Code    26  bsp_delay.o(i.delay_init)
    delay_ms                                 0x08005411   Thumb Code    50  bsp_delay.o(i.delay_ms)
    delay_us                                 0x08005449   Thumb Code    50  bsp_delay.o(i.delay_us)
    door                                     0x08005481   Thumb Code   594  barrier.o(i.door)
    floor                                    0x08005715   Thumb Code   204  floor.o(i.floor)
    getAngleZ                                0x080057f1   Thumb Code    44  turn.o(i.getAngleZ)
    getNextConnectNode                       0x0800582d   Thumb Code    42  map.o(i.getNextConnectNode)
    gradual_cal                              0x08005865   Thumb Code   102  speed_ctrl.o(i.gradual_cal)
    ignore_node                              0x080058cd   Thumb Code    16  barrier.o(i.ignore_node)
    iic_ack                                  0x080058e1   Thumb Code    76  bsp_servo_iic.o(i.iic_ack)
    iic_not_ack                              0x08005931   Thumb Code    76  bsp_servo_iic.o(i.iic_not_ack)
    iic_read_byte                            0x08005981   Thumb Code   104  bsp_servo_iic.o(i.iic_read_byte)
    iic_send_byte                            0x080059ed   Thumb Code    96  bsp_servo_iic.o(i.iic_send_byte)
    iic_start                                0x08005a51   Thumb Code    76  bsp_servo_iic.o(i.iic_start)
    iic_stop                                 0x08005aa1   Thumb Code    76  bsp_servo_iic.o(i.iic_stop)
    iic_wait_ack                             0x08005af1   Thumb Code    98  bsp_servo_iic.o(i.iic_wait_ack)
    imu_receive_init                         0x08005b59   Thumb Code    22  bsp_imu.o(i.imu_receive_init)
    incremental_PID                          0x08005b79   Thumb Code   198  pid.o(i.incremental_PID)
    main                                     0x08005c41   Thumb Code   270  main.o(i.main)
    mapInit                                  0x08005d71   Thumb Code    78  map.o(i.mapInit)
    map_function                             0x08005dd5   Thumb Code   112  map.o(i.map_function)
    motor_pid_clear                          0x08005e59   Thumb Code    86  pid.o(i.motor_pid_clear)
    motor_pwm_enable                         0x08005eb5   Thumb Code   102  bsp_motor.o(i.motor_pwm_enable)
    motor_set_pwm                            0x08005f35   Thumb Code   160  bsp_motor.o(i.motor_set_pwm)
    mpuZreset                                0x08005fdd   Thumb Code    12  turn.o(i.mpuZreset)
    need2turn                                0x08005fed   Thumb Code    38  turn.o(i.need2turn)
    openmv_receive_init                      0x08006021   Thumb Code    22  openmv.o(i.openmv_receive_init)
    pca_init                                 0x08006041   Thumb Code    30  bsp_servo_iic.o(i.pca_init)
    pca_read                                 0x0800605f   Thumb Code    58  bsp_servo_iic.o(i.pca_read)
    pca_setfreq                              0x08006099   Thumb Code   154  bsp_servo_iic.o(i.pca_setfreq)
    pca_setpwm                               0x08006149   Thumb Code    72  bsp_servo_iic.o(i.pca_setpwm)
    pca_write                                0x08006191   Thumb Code    48  bsp_servo_iic.o(i.pca_write)
    pid_init                                 0x080061c1   Thumb Code   100  pid.o(i.pid_init)
    pid_mode_switch                          0x08006265   Thumb Code   274  tim_it.o(i.pid_mode_switch)
    positional_PID                           0x08006391   Thumb Code   180  pid.o(i.positional_PID)
    powCal                                   0x08006445   Thumb Code   318  scaner.o(i.powCal)
    read_encoder                             0x0800658d   Thumb Code    64  bsp_motor.o(i.read_encoder)
    route_reset                              0x080065d9   Thumb Code   468  barrier.o(i.route_reset)
    runWithAngle                             0x080067d5   Thumb Code   108  turn.o(i.runWithAngle)
    undermou                                 0x08006851   Thumb Code    96  barrier.o(i.undermou)
    view                                     0x080068d5   Thumb Code   146  barrier.o(i.view)
    view1                                    0x08006999   Thumb Code    44  barrier.o(i.view1)
    AHBPrescTable                            0x080069cc   Data          16  system_stm32f1xx.o(.constdata)
    APBPrescTable                            0x080069dc   Data           8  system_stm32f1xx.o(.constdata)
    line_weight                              0x080069e4   Data          64  scaner.o(.constdata)
    Region$$Table$$Base                      0x08006a40   Number         0  anon$$obj.o(Region$$Table)
    Region$$Table$$Limit                     0x08006a60   Number         0  anon$$obj.o(Region$$Table)
    SystemCoreClock                          0x20000000   Data           4  system_stm32f1xx.o(.data)
    imu_rx_len                               0x2000000c   Data           1  bsp_imu.o(.data)
    infrared                                 0x2000000f   Data           4  bsp_linefollower.o(.data)
    BAOWU_flag                               0x20000014   Data           2  bsp_qrscan.o(.data)
    BAOWU_flag_2                             0x20000016   Data           2  bsp_qrscan.o(.data)
    BAOWU_flag_3                             0x20000018   Data           2  bsp_qrscan.o(.data)
    ct_flag                                  0x2000001c   Data           4  bsp_qrscan.o(.data)
    rx_len                                   0x20000021   Data           1  openmv.o(.data)
    counter                                  0x20000022   Data           1  openmv.o(.data)
    flag                                     0x20000023   Data           1  openmv.o(.data)
    value                                    0x20000028   Data           4  openmv.o(.data)
    motor_all                                0x2000002c   Data          44  speed_ctrl.o(.data)
    angle                                    0x20000058   Data           8  turn.o(.data)
    map                                      0x20000061   Data           2  map.o(.data)
    route                                    0x20000068   Data         100  map.o(.data)
    door1route                               0x200000cc   Data         100  map.o(.data)
    door2route                               0x20000130   Data         100  map.o(.data)
    door3route                               0x20000194   Data         100  map.o(.data)
    door4route                               0x200001f8   Data         100  map.o(.data)
    Node                                     0x20000260   Data        2360  map_message.o(.data)
    ConnectionNum                            0x20000b98   Data          50  map_message.o(.data)
    Address                                  0x20000bca   Data          50  map_message.o(.data)
    scaner_set                               0x20000bfc   Data           8  scaner.o(.data)
    line_gyro_switch                         0x20000c04   Data           1  tim_it.o(.data)
    PIDMode                                  0x20000c05   Data           1  tim_it.o(.data)
    TIM6_tick                                0x20000c0c   Data           4  tim_it.o(.data)
    uwTickFreq                               0x20000c10   Data           1  stm32f1xx_hal.o(.data)
    uwTickPrio                               0x20000c14   Data           4  stm32f1xx_hal.o(.data)
    uwTick                                   0x20000c18   Data           4  stm32f1xx_hal.o(.data)
    htim1                                    0x20000c1c   Data          72  tim.o(.bss)
    htim2                                    0x20000c64   Data          72  tim.o(.bss)
    htim3                                    0x20000cac   Data          72  tim.o(.bss)
    htim4                                    0x20000cf4   Data          72  tim.o(.bss)
    htim5                                    0x20000d3c   Data          72  tim.o(.bss)
    htim6                                    0x20000d84   Data          72  tim.o(.bss)
    htim8                                    0x20000dcc   Data          72  tim.o(.bss)
    huart4                                   0x20000e14   Data          68  usart.o(.bss)
    huart5                                   0x20000e58   Data          68  usart.o(.bss)
    huart2                                   0x20000e9c   Data          68  usart.o(.bss)
    huart3                                   0x20000ee0   Data          68  usart.o(.bss)
    hdma_usart2_rx                           0x20000f24   Data          68  usart.o(.bss)
    hdma_usart3_rx                           0x20000f68   Data          68  usart.o(.bss)
    imu_rx_buf                               0x20000fac   Data         200  bsp_imu.o(.bss)
    imu                                      0x20001074   Data          20  bsp_imu.o(.bss)
    BW_num                                   0x2000109c   Data          12  bsp_qrscan.o(.bss)
    TC_speed                                 0x200010a8   Data          12  speed_ctrl.o(.bss)
    TG_speed                                 0x200010b4   Data          12  speed_ctrl.o(.bss)
    nodesr                                   0x200010c0   Data          44  map.o(.bss)
    Scaner                                   0x200010ec   Data          12  scaner.o(.bss)
    motor_L0                                 0x200010f8   Data          24  pid.o(.bss)
    motor_L1                                 0x20001110   Data          24  pid.o(.bss)
    motor_R0                                 0x20001128   Data          24  pid.o(.bss)
    motor_R1                                 0x20001140   Data          24  pid.o(.bss)
    motor_pid_param                          0x20001158   Data          28  pid.o(.bss)
    line_pid_param                           0x20001174   Data          28  pid.o(.bss)
    gyroT_pid_param                          0x20001190   Data          28  pid.o(.bss)
    gyroG_pid_param                          0x200011ac   Data          28  pid.o(.bss)
    line_pid_obj                             0x200011c8   Data          28  pid.o(.bss)
    gyroT_pid                                0x200011e4   Data          28  pid.o(.bss)
    gyroG_pid                                0x20001200   Data          28  pid.o(.bss)
    __initial_sp                             0x20001a20   Data           0  startup_stm32f103xe.o(STACK)



==============================================================================

Memory Map of the image

  Image Entry point : 0x08000131

  Load Region LR_IROM1 (Base: 0x08000000, Size: 0x0000767c, Max: 0x00040000, ABSOLUTE, COMPRESSED[0x00006efc])

    Execution Region ER_IROM1 (Exec base: 0x08000000, Load base: 0x08000000, Size: 0x00006a60, Max: 0x00040000, ABSOLUTE)

    Exec Addr    Load Addr    Size         Type   Attr      Idx    E Section Name        Object

    0x08000000   0x08000000   0x00000130   Data   RO            3    RESET               startup_stm32f103xe.o
    0x08000130   0x08000130   0x00000000   Code   RO         4022  * .ARM.Collect$$$$00000000  mc_w.l(entry.o)
    0x08000130   0x08000130   0x00000004   Code   RO         4362    .ARM.Collect$$$$00000001  mc_w.l(entry2.o)
    0x08000134   0x08000134   0x00000004   Code   RO         4365    .ARM.Collect$$$$00000004  mc_w.l(entry5.o)
    0x08000138   0x08000138   0x00000000   Code   RO         4367    .ARM.Collect$$$$00000008  mc_w.l(entry7b.o)
    0x08000138   0x08000138   0x00000000   Code   RO         4369    .ARM.Collect$$$$0000000A  mc_w.l(entry8b.o)
    0x08000138   0x08000138   0x00000008   Code   RO         4370    .ARM.Collect$$$$0000000B  mc_w.l(entry9a.o)
    0x08000140   0x08000140   0x00000004   Code   RO         4377    .ARM.Collect$$$$0000000E  mc_w.l(entry12b.o)
    0x08000144   0x08000144   0x00000000   Code   RO         4372    .ARM.Collect$$$$0000000F  mc_w.l(entry10a.o)
    0x08000144   0x08000144   0x00000000   Code   RO         4374    .ARM.Collect$$$$00000011  mc_w.l(entry11a.o)
    0x08000144   0x08000144   0x00000004   Code   RO         4363    .ARM.Collect$$$$00002712  mc_w.l(entry2.o)
    0x08000148   0x08000148   0x00000024   Code   RO            4    .text               startup_stm32f103xe.o
    0x0800016c   0x0800016c   0x00000020   Code   RO         4025    .text               mc_w.l(llushr.o)
    0x0800018c   0x0800018c   0x00000024   Code   RO         4027    .text               mc_w.l(memcpya.o)
    0x080001b0   0x080001b0   0x00000024   Code   RO         4029    .text               mc_w.l(memseta.o)
    0x080001d4   0x080001d4   0x000000b0   Code   RO         4294    .text               mf_w.l(fadd.o)
    0x08000284   0x08000284   0x00000064   Code   RO         4296    .text               mf_w.l(fmul.o)
    0x080002e8   0x080002e8   0x0000007c   Code   RO         4298    .text               mf_w.l(fdiv.o)
    0x08000364   0x08000364   0x00000018   Code   RO         4300    .text               mf_w.l(fscalb.o)
    0x0800037c   0x0800037c   0x0000014e   Code   RO         4302    .text               mf_w.l(dadd.o)
    0x080004ca   0x080004ca   0x000000e4   Code   RO         4304    .text               mf_w.l(dmul.o)
    0x080005ae   0x080005ae   0x000000de   Code   RO         4306    .text               mf_w.l(ddiv.o)
    0x0800068c   0x0800068c   0x0000002e   Code   RO         4308    .text               mf_w.l(dscalb.o)
    0x080006ba   0x080006ba   0x00000012   Code   RO         4310    .text               mf_w.l(fflti.o)
    0x080006cc   0x080006cc   0x0000000a   Code   RO         4312    .text               mf_w.l(ffltui.o)
    0x080006d6   0x080006d6   0x00000022   Code   RO         4314    .text               mf_w.l(dflti.o)
    0x080006f8   0x080006f8   0x0000001a   Code   RO         4316    .text               mf_w.l(dfltui.o)
    0x08000712   0x08000712   0x00000032   Code   RO         4318    .text               mf_w.l(ffixi.o)
    0x08000744   0x08000744   0x00000032   Code   RO         4320    .text               mf_w.l(dfixui.o)
    0x08000776   0x08000776   0x00000026   Code   RO         4322    .text               mf_w.l(f2d.o)
    0x0800079c   0x0800079c   0x00000030   Code   RO         4324    .text               mf_w.l(cdcmple.o)
    0x080007cc   0x080007cc   0x00000030   Code   RO         4326    .text               mf_w.l(cdrcmple.o)
    0x080007fc   0x080007fc   0x00000038   Code   RO         4328    .text               mf_w.l(d2f.o)
    0x08000834   0x08000834   0x00000014   Code   RO         4330    .text               mf_w.l(cfcmple.o)
    0x08000848   0x08000848   0x00000014   Code   RO         4332    .text               mf_w.l(cfrcmple.o)
    0x0800085c   0x0800085c   0x0000001e   Code   RO         4382    .text               mc_w.l(llshl.o)
    0x0800087a   0x0800087a   0x00000024   Code   RO         4384    .text               mc_w.l(llsshr.o)
    0x0800089e   0x0800089e   0x00000000   Code   RO         4393    .text               mc_w.l(iusefp.o)
    0x0800089e   0x0800089e   0x0000006e   Code   RO         4394    .text               mf_w.l(fepilogue.o)
    0x0800090c   0x0800090c   0x000000ba   Code   RO         4396    .text               mf_w.l(depilogue.o)
    0x080009c6   0x080009c6   0x00000002   PAD
    0x080009c8   0x080009c8   0x00000024   Code   RO         4404    .text               mc_w.l(init.o)
    0x080009ec   0x080009ec   0x00000056   Code   RO         4416    .text               mc_w.l(__dczerorl2.o)
    0x08000a42   0x08000a42   0x00000002   PAD
    0x08000a44   0x08000a44   0x00000024   Code   RO         1084    i.AdCircle          turn.o
    0x08000a68   0x08000a68   0x00000024   Code   RO         1225    i.Anti_shake        barrier.o
    0x08000a8c   0x08000a8c   0x0000011c   Code   RO         1226    i.Barrier_Bridge    barrier.o
    0x08000ba8   0x08000ba8   0x0000009c   Code   RO         1227    i.Barrier_Down_HighMountain  barrier.o
    0x08000c44   0x08000c44   0x00000234   Code   RO         1228    i.Barrier_HighMountain  barrier.o
    0x08000e78   0x08000e78   0x00000094   Code   RO         1229    i.Barrier_Hill      barrier.o
    0x08000f0c   0x08000f0c   0x00000040   Code   RO         1230    i.Barrier_WavedPlate  barrier.o
    0x08000f4c   0x08000f4c   0x00000002   Code   RO          463    i.BusFault_Handler  stm32f1xx_it.o
    0x08000f4e   0x08000f4e   0x00000002   PAD
    0x08000f50   0x08000f50   0x00000018   Code   RO         1046    i.CarBrake          speed_ctrl.o
    0x08000f68   0x08000f68   0x00000534   Code   RO         1163    i.Cross             map.o
    0x0800149c   0x0800149c   0x00000002   Code   RO          464    i.DMA1_Channel3_IRQHandler  stm32f1xx_it.o
    0x0800149e   0x0800149e   0x00000002   PAD
    0x080014a0   0x080014a0   0x0000000c   Code   RO          465    i.DMA1_Channel6_IRQHandler  stm32f1xx_it.o
    0x080014ac   0x080014ac   0x0000002c   Code   RO         3028    i.DMA_SetConfig     stm32f1xx_hal_dma.o
    0x080014d8   0x080014d8   0x00000002   Code   RO          466    i.DebugMon_Handler  stm32f1xx_it.o
    0x080014da   0x080014da   0x00000016   Code   RO           13    i.Error_Handler     main.o
    0x080014f0   0x080014f0   0x00000070   Code   RO         1399    i.Go_Line           scaner.o
    0x08001560   0x08001560   0x00000046   Code   RO         3029    i.HAL_DMA_Abort     stm32f1xx_hal_dma.o
    0x080015a6   0x080015a6   0x00000002   PAD
    0x080015a8   0x080015a8   0x00000150   Code   RO         3030    i.HAL_DMA_Abort_IT  stm32f1xx_hal_dma.o
    0x080016f8   0x080016f8   0x000002a0   Code   RO         3034    i.HAL_DMA_IRQHandler  stm32f1xx_hal_dma.o
    0x08001998   0x08001998   0x00000080   Code   RO         3035    i.HAL_DMA_Init      stm32f1xx_hal_dma.o
    0x08001a18   0x08001a18   0x00000074   Code   RO         3039    i.HAL_DMA_Start_IT  stm32f1xx_hal_dma.o
    0x08001a8c   0x08001a8c   0x00000024   Code   RO         2652    i.HAL_Delay         stm32f1xx_hal.o
    0x08001ab0   0x08001ab0   0x00000214   Code   RO         2965    i.HAL_GPIO_Init     stm32f1xx_hal_gpio.o
    0x08001cc4   0x08001cc4   0x0000000e   Code   RO         2967    i.HAL_GPIO_ReadPin  stm32f1xx_hal_gpio.o
    0x08001cd2   0x08001cd2   0x00000010   Code   RO         2968    i.HAL_GPIO_TogglePin  stm32f1xx_hal_gpio.o
    0x08001ce2   0x08001ce2   0x0000000e   Code   RO         2969    i.HAL_GPIO_WritePin  stm32f1xx_hal_gpio.o
    0x08001cf0   0x08001cf0   0x0000000c   Code   RO         2656    i.HAL_GetTick       stm32f1xx_hal.o
    0x08001cfc   0x08001cfc   0x00000010   Code   RO         2662    i.HAL_IncTick       stm32f1xx_hal.o
    0x08001d0c   0x08001d0c   0x00000024   Code   RO         2663    i.HAL_Init          stm32f1xx_hal.o
    0x08001d30   0x08001d30   0x00000044   Code   RO         2664    i.HAL_InitTick      stm32f1xx_hal.o
    0x08001d74   0x08001d74   0x00000048   Code   RO          545    i.HAL_MspInit       stm32f1xx_hal_msp.o
    0x08001dbc   0x08001dbc   0x0000001a   Code   RO         3125    i.HAL_NVIC_EnableIRQ  stm32f1xx_hal_cortex.o
    0x08001dd6   0x08001dd6   0x00000002   PAD
    0x08001dd8   0x08001dd8   0x00000040   Code   RO         3131    i.HAL_NVIC_SetPriority  stm32f1xx_hal_cortex.o
    0x08001e18   0x08001e18   0x00000024   Code   RO         3132    i.HAL_NVIC_SetPriorityGrouping  stm32f1xx_hal_cortex.o
    0x08001e3c   0x08001e3c   0x00000154   Code   RO         2820    i.HAL_RCC_ClockConfig  stm32f1xx_hal_rcc.o
    0x08001f90   0x08001f90   0x0000000c   Code   RO         2825    i.HAL_RCC_GetHCLKFreq  stm32f1xx_hal_rcc.o
    0x08001f9c   0x08001f9c   0x00000020   Code   RO         2827    i.HAL_RCC_GetPCLK1Freq  stm32f1xx_hal_rcc.o
    0x08001fbc   0x08001fbc   0x00000020   Code   RO         2828    i.HAL_RCC_GetPCLK2Freq  stm32f1xx_hal_rcc.o
    0x08001fdc   0x08001fdc   0x00000074   Code   RO         2829    i.HAL_RCC_GetSysClockFreq  stm32f1xx_hal_rcc.o
    0x08002050   0x08002050   0x00000384   Code   RO         2832    i.HAL_RCC_OscConfig  stm32f1xx_hal_rcc.o
    0x080023d4   0x080023d4   0x00000028   Code   RO         3136    i.HAL_SYSTICK_Config  stm32f1xx_hal_cortex.o
    0x080023fc   0x080023fc   0x00000002   Code   RO         2378    i.HAL_TIMEx_BreakCallback  stm32f1xx_hal_tim_ex.o
    0x080023fe   0x080023fe   0x00000002   Code   RO         2379    i.HAL_TIMEx_CommutCallback  stm32f1xx_hal_tim_ex.o
    0x08002400   0x08002400   0x00000054   Code   RO         2381    i.HAL_TIMEx_ConfigBreakDeadTime  stm32f1xx_hal_tim_ex.o
    0x08002454   0x08002454   0x0000007c   Code   RO         2397    i.HAL_TIMEx_MasterConfigSynchronization  stm32f1xx_hal_tim_ex.o
    0x080024d0   0x080024d0   0x0000004a   Code   RO         1663    i.HAL_TIM_Base_Init  stm32f1xx_hal_tim.o
    0x0800251a   0x0800251a   0x00000002   PAD
    0x0800251c   0x0800251c   0x00000070   Code   RO          285    i.HAL_TIM_Base_MspInit  tim.o
    0x0800258c   0x0800258c   0x00000078   Code   RO         1668    i.HAL_TIM_Base_Start_IT  stm32f1xx_hal_tim.o
    0x08002604   0x08002604   0x000000e2   Code   RO         1672    i.HAL_TIM_ConfigClockSource  stm32f1xx_hal_tim.o
    0x080026e6   0x080026e6   0x000000b0   Code   RO         1684    i.HAL_TIM_Encoder_Init  stm32f1xx_hal_tim.o
    0x08002796   0x08002796   0x00000002   PAD
    0x08002798   0x08002798   0x0000013c   Code   RO          287    i.HAL_TIM_Encoder_MspInit  tim.o
    0x080028d4   0x080028d4   0x000000a8   Code   RO         1687    i.HAL_TIM_Encoder_Start  stm32f1xx_hal_tim.o
    0x0800297c   0x0800297c   0x00000002   Code   RO         1697    i.HAL_TIM_IC_CaptureCallback  stm32f1xx_hal_tim.o
    0x0800297e   0x0800297e   0x0000016e   Code   RO         1711    i.HAL_TIM_IRQHandler  stm32f1xx_hal_tim.o
    0x08002aec   0x08002aec   0x00000080   Code   RO          288    i.HAL_TIM_MspPostInit  tim.o
    0x08002b6c   0x08002b6c   0x00000002   Code   RO         1714    i.HAL_TIM_OC_DelayElapsedCallback  stm32f1xx_hal_tim.o
    0x08002b6e   0x08002b6e   0x000000d2   Code   RO         1735    i.HAL_TIM_PWM_ConfigChannel  stm32f1xx_hal_tim.o
    0x08002c40   0x08002c40   0x0000004a   Code   RO         1738    i.HAL_TIM_PWM_Init  stm32f1xx_hal_tim.o
    0x08002c8a   0x08002c8a   0x00000002   Code   RO         1740    i.HAL_TIM_PWM_MspInit  stm32f1xx_hal_tim.o
    0x08002c8c   0x08002c8c   0x00000002   Code   RO         1741    i.HAL_TIM_PWM_PulseFinishedCallback  stm32f1xx_hal_tim.o
    0x08002c8e   0x08002c8e   0x00000002   PAD
    0x08002c90   0x08002c90   0x000000c8   Code   RO         1743    i.HAL_TIM_PWM_Start  stm32f1xx_hal_tim.o
    0x08002d58   0x08002d58   0x00000280   Code   RO         1584    i.HAL_TIM_PeriodElapsedCallback  tim_it.o
    0x08002fd8   0x08002fd8   0x00000002   Code   RO         1754    i.HAL_TIM_TriggerCallback  stm32f1xx_hal_tim.o
    0x08002fda   0x08002fda   0x00000002   Code   RO         3657    i.HAL_UARTEx_RxEventCallback  stm32f1xx_hal_uart.o
    0x08002fdc   0x08002fdc   0x00000058   Code   RO         3669    i.HAL_UART_DMAStop  stm32f1xx_hal_uart.o
    0x08003034   0x08003034   0x00000002   Code   RO         3671    i.HAL_UART_ErrorCallback  stm32f1xx_hal_uart.o
    0x08003036   0x08003036   0x00000002   PAD
    0x08003038   0x08003038   0x000001cc   Code   RO         3674    i.HAL_UART_IRQHandler  stm32f1xx_hal_uart.o
    0x08003204   0x08003204   0x00000064   Code   RO         3675    i.HAL_UART_Init     stm32f1xx_hal_uart.o
    0x08003268   0x08003268   0x00000230   Code   RO          381    i.HAL_UART_MspInit  usart.o
    0x08003498   0x08003498   0x0000002e   Code   RO         3679    i.HAL_UART_Receive_DMA  stm32f1xx_hal_uart.o
    0x080034c6   0x080034c6   0x00000002   Code   RO         3681    i.HAL_UART_RxCpltCallback  stm32f1xx_hal_uart.o
    0x080034c8   0x080034c8   0x00000002   Code   RO         3682    i.HAL_UART_RxHalfCpltCallback  stm32f1xx_hal_uart.o
    0x080034ca   0x080034ca   0x000000be   Code   RO         3683    i.HAL_UART_Transmit  stm32f1xx_hal_uart.o
    0x08003588   0x08003588   0x00000002   Code   RO         3686    i.HAL_UART_TxCpltCallback  stm32f1xx_hal_uart.o
    0x0800358a   0x0800358a   0x00000002   Code   RO          467    i.HardFault_Handler  stm32f1xx_it.o
    0x0800358c   0x0800358c   0x00000010   Code   RO          638    i.LED_on            bsp_led.o
    0x0800359c   0x0800359c   0x00000010   Code   RO          639    i.LED_twinkle       bsp_led.o
    0x080035ac   0x080035ac   0x00000014   Code   RO          909    i.LFB_receive_init  bsp_linefollower.o
    0x080035c0   0x080035c0   0x00000020   Code   RO          910    i.LFB_send          bsp_linefollower.o
    0x080035e0   0x080035e0   0x0000003c   Code   RO          260    i.MX_DMA_Init       dma.o
    0x0800361c   0x0800361c   0x00000114   Code   RO          236    i.MX_GPIO_Init      gpio.o
    0x08003730   0x08003730   0x000000f8   Code   RO          289    i.MX_TIM1_Init      tim.o
    0x08003828   0x08003828   0x0000006c   Code   RO          290    i.MX_TIM2_Init      tim.o
    0x08003894   0x08003894   0x0000006c   Code   RO          291    i.MX_TIM3_Init      tim.o
    0x08003900   0x08003900   0x0000006c   Code   RO          292    i.MX_TIM4_Init      tim.o
    0x0800396c   0x0800396c   0x0000006c   Code   RO          293    i.MX_TIM5_Init      tim.o
    0x080039d8   0x080039d8   0x00000048   Code   RO          294    i.MX_TIM6_Init      tim.o
    0x08003a20   0x08003a20   0x000000f8   Code   RO          295    i.MX_TIM8_Init      tim.o
    0x08003b18   0x08003b18   0x00000038   Code   RO          382    i.MX_UART4_Init     usart.o
    0x08003b50   0x08003b50   0x00000038   Code   RO          383    i.MX_UART5_Init     usart.o
    0x08003b88   0x08003b88   0x00000038   Code   RO          384    i.MX_USART2_UART_Init  usart.o
    0x08003bc0   0x08003bc0   0x00000038   Code   RO          385    i.MX_USART3_UART_Init  usart.o
    0x08003bf8   0x08003bf8   0x00000002   Code   RO          468    i.MemManage_Handler  stm32f1xx_it.o
    0x08003bfa   0x08003bfa   0x00000002   Code   RO          469    i.NMI_Handler       stm32f1xx_it.o
    0x08003bfc   0x08003bfc   0x00000228   Code   RO         1231    i.QQB_1             barrier.o
    0x08003e24   0x08003e24   0x00000014   Code   RO          963    i.QR_receive_init   bsp_qrscan.o
    0x08003e38   0x08003e38   0x00000024   Code   RO         2833    i.RCC_Delay         stm32f1xx_hal_rcc.o
    0x08003e5c   0x08003e5c   0x000000e8   Code   RO         1232    i.S_curve           barrier.o
    0x08003f44   0x08003f44   0x0000001a   Code   RO          640    i.Shine_o_f         bsp_led.o
    0x08003f5e   0x08003f5e   0x00000002   PAD
    0x08003f60   0x08003f60   0x00000010   Code   RO          641    i.Shine_off         bsp_led.o
    0x08003f70   0x08003f70   0x00000010   Code   RO          642    i.Shine_on          bsp_led.o
    0x08003f80   0x08003f80   0x00000190   Code   RO         1233    i.South_Pole        barrier.o
    0x08004110   0x08004110   0x000001f0   Code   RO         1234    i.Stage             barrier.o
    0x08004300   0x08004300   0x0000008c   Code   RO         1235    i.Stage_P2          barrier.o
    0x0800438c   0x0800438c   0x000000b0   Code   RO         1236    i.Sword_Mountain    barrier.o
    0x0800443c   0x0800443c   0x00000004   Code   RO          470    i.SysTick_Handler   stm32f1xx_it.o
    0x08004440   0x08004440   0x0000005e   Code   RO           14    i.SystemClock_Config  main.o
    0x0800449e   0x0800449e   0x00000002   PAD
    0x080044a0   0x080044a0   0x00000048   Code   RO          570    i.SystemInit        system_stm32f1xx.o
    0x080044e8   0x080044e8   0x0000000c   Code   RO          471    i.TIM6_IRQHandler   stm32f1xx_it.o
    0x080044f4   0x080044f4   0x00000090   Code   RO         1756    i.TIM_Base_SetConfig  stm32f1xx_hal_tim.o
    0x08004584   0x08004584   0x0000001a   Code   RO         1757    i.TIM_CCxChannelCmd  stm32f1xx_hal_tim.o
    0x0800459e   0x0800459e   0x00000014   Code   RO         1767    i.TIM_ETR_SetConfig  stm32f1xx_hal_tim.o
    0x080045b2   0x080045b2   0x00000010   Code   RO         1768    i.TIM_ITRx_SetConfig  stm32f1xx_hal_tim.o
    0x080045c2   0x080045c2   0x00000002   PAD
    0x080045c4   0x080045c4   0x00000068   Code   RO         1769    i.TIM_OC1_SetConfig  stm32f1xx_hal_tim.o
    0x0800462c   0x0800462c   0x00000074   Code   RO         1770    i.TIM_OC2_SetConfig  stm32f1xx_hal_tim.o
    0x080046a0   0x080046a0   0x00000070   Code   RO         1771    i.TIM_OC3_SetConfig  stm32f1xx_hal_tim.o
    0x08004710   0x08004710   0x00000054   Code   RO         1772    i.TIM_OC4_SetConfig  stm32f1xx_hal_tim.o
    0x08004764   0x08004764   0x00000022   Code   RO         1774    i.TIM_TI1_ConfigInputStage  stm32f1xx_hal_tim.o
    0x08004786   0x08004786   0x00000024   Code   RO         1776    i.TIM_TI2_ConfigInputStage  stm32f1xx_hal_tim.o
    0x080047aa   0x080047aa   0x00000002   PAD
    0x080047ac   0x080047ac   0x000000b0   Code   RO         1085    i.Turn_Angle        turn.o
    0x0800485c   0x0800485c   0x00000088   Code   RO         1086    i.Turn_Angle360     turn.o
    0x080048e4   0x080048e4   0x00000048   Code   RO         1087    i.Turn_Angle_Relative  turn.o
    0x0800492c   0x0800492c   0x000000d4   Code   RO          911    i.UART4_IRQHandler  bsp_linefollower.o
    0x08004a00   0x08004a00   0x0000007c   Code   RO          964    i.UART5_IRQHandler  bsp_qrscan.o
    0x08004a7c   0x08004a7c   0x00000010   Code   RO         3688    i.UART_DMAAbortOnError  stm32f1xx_hal_uart.o
    0x08004a8c   0x08004a8c   0x0000004a   Code   RO         3689    i.UART_DMAError     stm32f1xx_hal_uart.o
    0x08004ad6   0x08004ad6   0x0000005a   Code   RO         3690    i.UART_DMAReceiveCplt  stm32f1xx_hal_uart.o
    0x08004b30   0x08004b30   0x0000001a   Code   RO         3692    i.UART_DMARxHalfCplt  stm32f1xx_hal_uart.o
    0x08004b4a   0x08004b4a   0x00000030   Code   RO         3698    i.UART_EndRxTransfer  stm32f1xx_hal_uart.o
    0x08004b7a   0x08004b7a   0x0000001a   Code   RO         3699    i.UART_EndTransmit_IT  stm32f1xx_hal_uart.o
    0x08004b94   0x08004b94   0x00000012   Code   RO         3700    i.UART_EndTxTransfer  stm32f1xx_hal_uart.o
    0x08004ba6   0x08004ba6   0x000000bc   Code   RO         3701    i.UART_Receive_IT   stm32f1xx_hal_uart.o
    0x08004c62   0x08004c62   0x00000002   PAD
    0x08004c64   0x08004c64   0x000000b8   Code   RO         3702    i.UART_SetConfig    stm32f1xx_hal_uart.o
    0x08004d1c   0x08004d1c   0x00000074   Code   RO         3703    i.UART_Start_Receive_DMA  stm32f1xx_hal_uart.o
    0x08004d90   0x08004d90   0x0000005e   Code   RO         3705    i.UART_Transmit_IT  stm32f1xx_hal_uart.o
    0x08004dee   0x08004dee   0x00000064   Code   RO         3706    i.UART_WaitOnFlagUntilTimeout  stm32f1xx_hal_uart.o
    0x08004e52   0x08004e52   0x00000002   PAD
    0x08004e54   0x08004e54   0x000000c4   Code   RO         1009    i.USART2_IRQHandler  openmv.o
    0x08004f18   0x08004f18   0x00000120   Code   RO          835    i.USART3_IRQHandler  bsp_imu.o
    0x08005038   0x08005038   0x00000002   Code   RO          472    i.UsageFault_Handler  stm32f1xx_it.o
    0x0800503a   0x0800503a   0x00000020   Code   RO         3138    i.__NVIC_SetPriority  stm32f1xx_hal_cortex.o
    0x0800505a   0x0800505a   0x0000000e   Code   RO         4410    i.__scatterload_copy  mc_w.l(handlers.o)
    0x08005068   0x08005068   0x00000002   Code   RO         4411    i.__scatterload_null  mc_w.l(handlers.o)
    0x0800506a   0x0800506a   0x0000000e   Code   RO         4412    i.__scatterload_zeroinit  mc_w.l(handlers.o)
    0x08005078   0x08005078   0x000000ce   Code   RO         1442    i.actions           motion.o
    0x08005146   0x08005146   0x00000002   PAD
    0x08005148   0x08005148   0x00000038   Code   RO          697    i.angle_write       bsp_servo_iic.o
    0x08005180   0x08005180   0x00000090   Code   RO         1237    i.back              barrier.o
    0x08005210   0x08005210   0x00000010   Code   RO          607    i.buzzer_off        bsp_buzzer.o
    0x08005220   0x08005220   0x00000010   Code   RO          608    i.buzzer_on         bsp_buzzer.o
    0x08005230   0x08005230   0x00000078   Code   RO          965    i.check_BW          bsp_qrscan.o
    0x080052a8   0x080052a8   0x00000140   Code   RO         1164    i.deal_arrive       map.o
    0x080053e8   0x080053e8   0x00000028   Code   RO          797    i.delay_init        bsp_delay.o
    0x08005410   0x08005410   0x00000038   Code   RO          798    i.delay_ms          bsp_delay.o
    0x08005448   0x08005448   0x00000038   Code   RO          799    i.delay_us          bsp_delay.o
    0x08005480   0x08005480   0x00000294   Code   RO         1238    i.door              barrier.o
    0x08005714   0x08005714   0x000000dc   Code   RO         4011    i.floor             m_ws.l(floor.o)
    0x080057f0   0x080057f0   0x0000003c   Code   RO         1088    i.getAngleZ         turn.o
    0x0800582c   0x0800582c   0x00000038   Code   RO         1165    i.getNextConnectNode  map.o
    0x08005864   0x08005864   0x00000066   Code   RO         1047    i.gradual_cal       speed_ctrl.o
    0x080058ca   0x080058ca   0x00000002   PAD
    0x080058cc   0x080058cc   0x00000014   Code   RO         1239    i.ignore_node       barrier.o
    0x080058e0   0x080058e0   0x00000050   Code   RO          698    i.iic_ack           bsp_servo_iic.o
    0x08005930   0x08005930   0x00000050   Code   RO          699    i.iic_not_ack       bsp_servo_iic.o
    0x08005980   0x08005980   0x0000006c   Code   RO          700    i.iic_read_byte     bsp_servo_iic.o
    0x080059ec   0x080059ec   0x00000064   Code   RO          701    i.iic_send_byte     bsp_servo_iic.o
    0x08005a50   0x08005a50   0x00000050   Code   RO          702    i.iic_start         bsp_servo_iic.o
    0x08005aa0   0x08005aa0   0x00000050   Code   RO          703    i.iic_stop          bsp_servo_iic.o
    0x08005af0   0x08005af0   0x00000068   Code   RO          704    i.iic_wait_ack      bsp_servo_iic.o
    0x08005b58   0x08005b58   0x00000020   Code   RO          836    i.imu_receive_init  bsp_imu.o
    0x08005b78   0x08005b78   0x000000c6   Code   RO         1503    i.incremental_PID   pid.o
    0x08005c3e   0x08005c3e   0x00000002   PAD
    0x08005c40   0x08005c40   0x00000130   Code   RO           15    i.main              main.o
    0x08005d70   0x08005d70   0x00000064   Code   RO         1166    i.mapInit           map.o
    0x08005dd4   0x08005dd4   0x00000084   Code   RO         1167    i.map_function      map.o
    0x08005e58   0x08005e58   0x0000005c   Code   RO         1504    i.motor_pid_clear   pid.o
    0x08005eb4   0x08005eb4   0x00000080   Code   RO          873    i.motor_pwm_enable  bsp_motor.o
    0x08005f34   0x08005f34   0x000000a8   Code   RO          874    i.motor_set_pwm     bsp_motor.o
    0x08005fdc   0x08005fdc   0x00000010   Code   RO         1089    i.mpuZreset         turn.o
    0x08005fec   0x08005fec   0x00000034   Code   RO         1090    i.need2turn         turn.o
    0x08006020   0x08006020   0x00000020   Code   RO         1010    i.openmv_receive_init  openmv.o
    0x08006040   0x08006040   0x0000001e   Code   RO          705    i.pca_init          bsp_servo_iic.o
    0x0800605e   0x0800605e   0x0000003a   Code   RO          706    i.pca_read          bsp_servo_iic.o
    0x08006098   0x08006098   0x000000b0   Code   RO          707    i.pca_setfreq       bsp_servo_iic.o
    0x08006148   0x08006148   0x00000048   Code   RO          708    i.pca_setpwm        bsp_servo_iic.o
    0x08006190   0x08006190   0x00000030   Code   RO          709    i.pca_write         bsp_servo_iic.o
    0x080061c0   0x080061c0   0x000000a4   Code   RO         1505    i.pid_init          pid.o
    0x08006264   0x08006264   0x0000012c   Code   RO         1585    i.pid_mode_switch   tim_it.o
    0x08006390   0x08006390   0x000000b4   Code   RO         1506    i.positional_PID    pid.o
    0x08006444   0x08006444   0x00000148   Code   RO         1400    i.powCal            scaner.o
    0x0800658c   0x0800658c   0x0000004c   Code   RO          875    i.read_encoder      bsp_motor.o
    0x080065d8   0x080065d8   0x000001fc   Code   RO         1240    i.route_reset       barrier.o
    0x080067d4   0x080067d4   0x0000007c   Code   RO         1091    i.runWithAngle      turn.o
    0x08006850   0x08006850   0x00000084   Code   RO         1241    i.undermou          barrier.o
    0x080068d4   0x080068d4   0x000000c4   Code   RO         1242    i.view              barrier.o
    0x08006998   0x08006998   0x00000034   Code   RO         1243    i.view1             barrier.o
    0x080069cc   0x080069cc   0x00000010   Data   RO          571    .constdata          system_stm32f1xx.o
    0x080069dc   0x080069dc   0x00000008   Data   RO          572    .constdata          system_stm32f1xx.o
    0x080069e4   0x080069e4   0x00000040   Data   RO         1402    .constdata          scaner.o
    0x08006a24   0x08006a24   0x0000001c   Data   RO         1586    .constdata          tim_it.o
    0x08006a40   0x08006a40   0x00000020   Data   RO         4408    Region$$Table       anon$$obj.o


    Execution Region RW_IRAM1 (Exec base: 0x20000000, Load base: 0x08006a60, Size: 0x00001a20, Max: 0x0000c000, ABSOLUTE, COMPRESSED[0x0000049c])

    Exec Addr    Load Addr    Size         Type   Attr      Idx    E Section Name        Object

    0x20000000   COMPRESSED   0x00000004   Data   RW          573    .data               system_stm32f1xx.o
    0x20000004   COMPRESSED   0x00000008   Data   RW          800    .data               bsp_delay.o
    0x2000000c   COMPRESSED   0x00000001   Data   RW          838    .data               bsp_imu.o
    0x2000000d   COMPRESSED   0x00000006   Data   RW          914    .data               bsp_linefollower.o
    0x20000013   COMPRESSED   0x00000001   PAD
    0x20000014   COMPRESSED   0x0000000c   Data   RW          967    .data               bsp_qrscan.o
    0x20000020   COMPRESSED   0x0000000c   Data   RW         1011    .data               openmv.o
    0x2000002c   COMPRESSED   0x0000002c   Data   RW         1050    .data               speed_ctrl.o
    0x20000058   COMPRESSED   0x00000008   Data   RW         1092    .data               turn.o
    0x20000060   COMPRESSED   0x0000006c   Data   RW         1169    .data               map.o
    0x200000cc   COMPRESSED   0x00000064   Data   RW         1170    .data               map.o
    0x20000130   COMPRESSED   0x00000064   Data   RW         1171    .data               map.o
    0x20000194   COMPRESSED   0x00000064   Data   RW         1172    .data               map.o
    0x200001f8   COMPRESSED   0x00000064   Data   RW         1173    .data               map.o
    0x2000025c   COMPRESSED   0x00000001   Data   RW         1244    .data               barrier.o
    0x2000025d   COMPRESSED   0x00000003   PAD
    0x20000260   COMPRESSED   0x00000938   Data   RW         1369    .data               map_message.o
    0x20000b98   COMPRESSED   0x00000032   Data   RW         1370    .data               map_message.o
    0x20000bca   COMPRESSED   0x00000032   Data   RW         1371    .data               map_message.o
    0x20000bfc   COMPRESSED   0x00000008   Data   RW         1403    .data               scaner.o
    0x20000c04   COMPRESSED   0x0000000c   Data   RW         1587    .data               tim_it.o
    0x20000c10   COMPRESSED   0x0000000c   Data   RW         2670    .data               stm32f1xx_hal.o
    0x20000c1c        -       0x000001f8   Zero   RW          296    .bss                tim.o
    0x20000e14        -       0x00000198   Zero   RW          389    .bss                usart.o
    0x20000fac        -       0x000000dc   Zero   RW          837    .bss                bsp_imu.o
    0x20001088        -       0x00000014   Zero   RW          913    .bss                bsp_linefollower.o
    0x2000109c        -       0x0000000c   Zero   RW          966    .bss                bsp_qrscan.o
    0x200010a8        -       0x0000000c   Zero   RW         1048    .bss                speed_ctrl.o
    0x200010b4        -       0x0000000c   Zero   RW         1049    .bss                speed_ctrl.o
    0x200010c0        -       0x0000002c   Zero   RW         1168    .bss                map.o
    0x200010ec        -       0x0000000c   Zero   RW         1401    .bss                scaner.o
    0x200010f8        -       0x000000d0   Zero   RW         1508    .bss                pid.o
    0x200011c8        -       0x0000001c   Zero   RW         1509    .bss                pid.o
    0x200011e4        -       0x0000001c   Zero   RW         1510    .bss                pid.o
    0x20001200        -       0x0000001c   Zero   RW         1511    .bss                pid.o
    0x2000121c   COMPRESSED   0x00000004   PAD
    0x20001220        -       0x00000800   Zero   RW            1    STACK               startup_stm32f103xe.o


==============================================================================

Image component sizes


      Code (inc. data)   RO Data    RW Data    ZI Data      Debug   Object Name

      4960        764          0          1          0      15960   barrier.o
        32         12          0          0          0       1157   bsp_buzzer.o
       152         26          0          8          0       2459   bsp_delay.o
       320         36          0          1        220       3279   bsp_imu.o
        90         24          0          0          0       2918   bsp_led.o
       264         36          0          6         20       4879   bsp_linefollower.o
       372         46          0          0          0       2510   bsp_motor.o
       264         30          0         12         12       3454   bsp_qrscan.o
      1072         64          0          0          0       9657   bsp_servo_iic.o
        60          4          0          0          0       1058   dma.o
       276         18          0          0          0       1307   gpio.o
       420         34          0          0          0     493038   main.o
      1940        200          0        508         44       7870   map.o
         0          0          0       2460          0       2684   map_message.o
       206          8          0          0          0        950   motion.o
       228         24          0         12          0       2666   openmv.o
       634         70          0          0        292       5158   pid.o
       440         38         64          8         12       3743   scaner.o
       126          6          0         44         24       3275   speed_ctrl.o
        36          8        304          0       2048        924   startup_stm32f103xe.o
       168         28          0         12          0       7785   stm32f1xx_hal.o
       198         14          0          0          0      29999   stm32f1xx_hal_cortex.o
      1366         52          0          0          0       6534   stm32f1xx_hal_dma.o
       576         40          0          0          0       4896   stm32f1xx_hal_gpio.o
        72         10          0          0          0       1182   stm32f1xx_hal_msp.o
      1468        106          0          0          0       7940   stm32f1xx_hal_rcc.o
      2316        100          0          0          0      22231   stm32f1xx_hal_tim.o
       212         22          0          0          0       4053   stm32f1xx_hal_tim_ex.o
      1874         24          0          0          0      19549   stm32f1xx_hal_uart.o
        42         12          0          0          0       5859   stm32f1xx_it.o
        72         16         24          4          0       1639   system_stm32f1xx.o
      1556        124          0          0        504       9280   tim.o
       940        112         28         12          0       3311   tim_it.o
       672        122          0          8          0       7741   turn.o
       784         76          0          0        408       6307   usart.o

    ----------------------------------------------------------------------
     24242       2306        452       3100       3588     707252   Object Totals
         0          0         32          0          0          0   (incl. Generated)
        34          0          0          4          4          0   (incl. Padding)

    ----------------------------------------------------------------------

      Code (inc. data)   RO Data    RW Data    ZI Data      Debug   Library Member Name

       220         16          0          0          0         84   floor.o
        86          0          0          0          0          0   __dczerorl2.o
         0          0          0          0          0          0   entry.o
         0          0          0          0          0          0   entry10a.o
         0          0          0          0          0          0   entry11a.o
         4          0          0          0          0          0   entry12b.o
         8          4          0          0          0          0   entry2.o
         4          0          0          0          0          0   entry5.o
         0          0          0          0          0          0   entry7b.o
         0          0          0          0          0          0   entry8b.o
         8          4          0          0          0          0   entry9a.o
        30          0          0          0          0          0   handlers.o
        36          8          0          0          0         68   init.o
         0          0          0          0          0          0   iusefp.o
        30          0          0          0          0         68   llshl.o
        36          0          0          0          0         68   llsshr.o
        32          0          0          0          0         68   llushr.o
        36          0          0          0          0         68   memcpya.o
        36          0          0          0          0        108   memseta.o
        48          0          0          0          0         68   cdcmple.o
        48          0          0          0          0         68   cdrcmple.o
        20          0          0          0          0         68   cfcmple.o
        20          0          0          0          0         68   cfrcmple.o
        56          0          0          0          0         88   d2f.o
       334          0          0          0          0        148   dadd.o
       222          0          0          0          0        100   ddiv.o
       186          0          0          0          0        176   depilogue.o
        50          0          0          0          0         76   dfixui.o
        34          0          0          0          0         76   dflti.o
        26          0          0          0          0         76   dfltui.o
       228          0          0          0          0         96   dmul.o
        46          0          0          0          0         80   dscalb.o
        38          0          0          0          0         68   f2d.o
       176          0          0          0          0        140   fadd.o
       124          0          0          0          0         88   fdiv.o
       110          0          0          0          0        168   fepilogue.o
        50          0          0          0          0         68   ffixi.o
        18          0          0          0          0         68   fflti.o
        10          0          0          0          0         68   ffltui.o
       100          0          0          0          0         76   fmul.o
        24          0          0          0          0         68   fscalb.o

    ----------------------------------------------------------------------
      2538         32          0          0          0       2532   Library Totals
         4          0          0          0          0          0   (incl. Padding)

    ----------------------------------------------------------------------

      Code (inc. data)   RO Data    RW Data    ZI Data      Debug   Library Name

       220         16          0          0          0         84   m_ws.l
       346         16          0          0          0        448   mc_w.l
      1968          0          0          0          0       2000   mf_w.l

    ----------------------------------------------------------------------
      2538         32          0          0          0       2532   Library Totals

    ----------------------------------------------------------------------

==============================================================================


      Code (inc. data)   RO Data    RW Data    ZI Data      Debug   

     26780       2338        452       3100       3588     699096   Grand Totals
     26780       2338        452       1180       3588     699096   ELF Image Totals (compressed)
     26780       2338        452       1180          0          0   ROM Totals

==============================================================================

    Total RO  Size (Code + RO Data)                27232 (  26.59kB)
    Total RW  Size (RW Data + ZI Data)              6688 (   6.53kB)
    Total ROM Size (Code + RO Data + RW Data)      28412 (  27.75kB)

==============================================================================

